SF:/Users/theoribeiro/Dev/tools/bake/src/baker.rs
FN:526,_RINvNCNvNtCs4EkGjsAKdp2_4bake5baker14process_output014collect_outputNtNtCsdZUiPGx2Ac9_5tokio7process11ChildStderrECs6G5DyER1L5a_4bake
FN:526,_RINvNCNvNtCs4EkGjsAKdp2_4bake5baker14process_output014collect_outputNtNtCsdZUiPGx2Ac9_5tokio7process11ChildStdoutECs6G5DyER1L5a_4bake
FN:531,_RNCINvNCNvNtCs4EkGjsAKdp2_4bake5baker14process_output014collect_outputNtNtCsdZUiPGx2Ac9_5tokio7process11ChildStderrE0Cs6G5DyER1L5a_4bake
FN:531,_RNCINvNCNvNtCs4EkGjsAKdp2_4bake5baker14process_output014collect_outputNtNtCsdZUiPGx2Ac9_5tokio7process11ChildStdoutE0Cs6G5DyER1L5a_4bake
FN:403,_RNCNCNvNtCs4EkGjsAKdp2_4bake5baker10run_recipe00Cs6G5DyER1L5a_4bake
FN:422,_RNCNCNvNtCs4EkGjsAKdp2_4bake5baker10run_recipe0s_0Cs6G5DyER1L5a_4bake
FN:563,_RNCNCNvNtCs4EkGjsAKdp2_4bake5baker14process_output00Cs6G5DyER1L5a_4bake
FN:320,_RNCNCNvNtCs4EkGjsAKdp2_4bake5baker30manage_single_recipe_execution00Cs6G5DyER1L5a_4bake
FN:85,_RNCNCNvNtCs4EkGjsAKdp2_4bake5baker4bake00Cs6G5DyER1L5a_4bake
FN:398,_RNCNvNtCs4EkGjsAKdp2_4bake5baker10run_recipe0Cs6G5DyER1L5a_4bake
FN:521,_RNCNvNtCs4EkGjsAKdp2_4bake5baker14process_output0Cs6G5DyER1L5a_4bake
FN:300,_RNCNvNtCs4EkGjsAKdp2_4bake5baker30manage_single_recipe_execution0Cs6G5DyER1L5a_4bake
FN:38,_RNCNvNtCs4EkGjsAKdp2_4bake5baker4bake0Cs6G5DyER1L5a_4bake
FN:526,_RINvNCNvNtCs4EkGjsAKdp2_4bake5baker14process_output014collect_outputpEB8_
FN:531,_RNCINvNCNvNtCs4EkGjsAKdp2_4bake5baker14process_output014collect_outputpE0Ba_
FN:403,_RNCNCNvNtCs4EkGjsAKdp2_4bake5baker10run_recipe00B7_
FN:422,_RNCNCNvNtCs4EkGjsAKdp2_4bake5baker10run_recipe0s_0B7_
FN:563,_RNCNCNvNtCs4EkGjsAKdp2_4bake5baker14process_output00B7_
FN:320,_RNCNCNvNtCs4EkGjsAKdp2_4bake5baker30manage_single_recipe_execution00B7_
FN:85,_RNCNCNvNtCs4EkGjsAKdp2_4bake5baker4bake00B7_
FN:398,_RNCNvNtCs4EkGjsAKdp2_4bake5baker10run_recipe0B5_
FN:521,_RNCNvNtCs4EkGjsAKdp2_4bake5baker14process_output0B5_
FN:300,_RNCNvNtCs4EkGjsAKdp2_4bake5baker30manage_single_recipe_execution0B5_
FN:38,_RNCNvNtCs4EkGjsAKdp2_4bake5baker4bake0B5_
FN:394,_RNvNtCs4EkGjsAKdp2_4bake5baker10run_recipe
FN:589,_RNvNtCs4EkGjsAKdp2_4bake5baker14println_recipe
FN:515,_RNvNtCs4EkGjsAKdp2_4bake5baker14process_output
FN:483,_RNvNtCs4EkGjsAKdp2_4bake5baker18name_to_term_color
FN:254,_RNvNtCs4EkGjsAKdp2_4bake5baker21process_final_results
FN:219,_RNvNtCs4EkGjsAKdp2_4bake5baker26handle_fast_fail_for_level
FN:294,_RNvNtCs4EkGjsAKdp2_4bake5baker30manage_single_recipe_execution
FN:33,_RNvNtCs4EkGjsAKdp2_4bake5baker4bake
FN:261,_RNCNvNtCs4EkGjsAKdp2_4bake5baker21process_final_results0B5_
FN:264,_RNCNvNtCs4EkGjsAKdp2_4bake5baker21process_final_resultss_0B5_
FN:225,_RNCNvNtCs4EkGjsAKdp2_4bake5baker26handle_fast_fail_for_level0B5_
FN:229,_RNCNvNtCs4EkGjsAKdp2_4bake5baker26handle_fast_fail_for_levels0_0B5_
FN:228,_RNCNvNtCs4EkGjsAKdp2_4bake5baker26handle_fast_fail_for_levels_0B5_
FN:526,_RINvNCNvNtCs1lk7uXtNODC_4bake5baker14process_output014collect_outputNtNtCsdZUiPGx2Ac9_5tokio7process11ChildStderrEB8_
FN:526,_RINvNCNvNtCs1lk7uXtNODC_4bake5baker14process_output014collect_outputNtNtCsdZUiPGx2Ac9_5tokio7process11ChildStdoutEB8_
FN:531,_RNCINvNCNvNtCs1lk7uXtNODC_4bake5baker14process_output014collect_outputNtNtCsdZUiPGx2Ac9_5tokio7process11ChildStderrE0Ba_
FN:531,_RNCINvNCNvNtCs1lk7uXtNODC_4bake5baker14process_output014collect_outputNtNtCsdZUiPGx2Ac9_5tokio7process11ChildStdoutE0Ba_
FN:403,_RNCNCNvNtCs1lk7uXtNODC_4bake5baker10run_recipe00B7_
FN:422,_RNCNCNvNtCs1lk7uXtNODC_4bake5baker10run_recipe0s_0B7_
FN:563,_RNCNCNvNtCs1lk7uXtNODC_4bake5baker14process_output00B7_
FN:320,_RNCNCNvNtCs1lk7uXtNODC_4bake5baker30manage_single_recipe_execution00B7_
FN:85,_RNCNCNvNtCs1lk7uXtNODC_4bake5baker4bake00B7_
FN:398,_RNCNvNtCs1lk7uXtNODC_4bake5baker10run_recipe0B5_
FN:521,_RNCNvNtCs1lk7uXtNODC_4bake5baker14process_output0B5_
FN:261,_RNCNvNtCs1lk7uXtNODC_4bake5baker21process_final_results0B5_
FN:264,_RNCNvNtCs1lk7uXtNODC_4bake5baker21process_final_resultss_0B5_
FN:225,_RNCNvNtCs1lk7uXtNODC_4bake5baker26handle_fast_fail_for_level0B5_
FN:229,_RNCNvNtCs1lk7uXtNODC_4bake5baker26handle_fast_fail_for_levels0_0B5_
FN:228,_RNCNvNtCs1lk7uXtNODC_4bake5baker26handle_fast_fail_for_levels_0B5_
FN:300,_RNCNvNtCs1lk7uXtNODC_4bake5baker30manage_single_recipe_execution0B5_
FN:38,_RNCNvNtCs1lk7uXtNODC_4bake5baker4bake0B5_
FN:394,_RNvNtCs1lk7uXtNODC_4bake5baker10run_recipe
FN:589,_RNvNtCs1lk7uXtNODC_4bake5baker14println_recipe
FN:515,_RNvNtCs1lk7uXtNODC_4bake5baker14process_output
FN:483,_RNvNtCs1lk7uXtNODC_4bake5baker18name_to_term_color
FN:254,_RNvNtCs1lk7uXtNODC_4bake5baker21process_final_results
FN:219,_RNvNtCs1lk7uXtNODC_4bake5baker26handle_fast_fail_for_level
FN:294,_RNvNtCs1lk7uXtNODC_4bake5baker30manage_single_recipe_execution
FN:33,_RNvNtCs1lk7uXtNODC_4bake5baker4bake
FN:526,_RINvNCNvNtCs4EkGjsAKdp2_4bake5baker14process_output014collect_outputNtNtCsdZUiPGx2Ac9_5tokio7process11ChildStderrECs7jFFKzxOOLS_11baker_tests
FN:526,_RINvNCNvNtCs4EkGjsAKdp2_4bake5baker14process_output014collect_outputNtNtCsdZUiPGx2Ac9_5tokio7process11ChildStdoutECs7jFFKzxOOLS_11baker_tests
FN:531,_RNCINvNCNvNtCs4EkGjsAKdp2_4bake5baker14process_output014collect_outputNtNtCsdZUiPGx2Ac9_5tokio7process11ChildStderrE0Cs7jFFKzxOOLS_11baker_tests
FN:531,_RNCINvNCNvNtCs4EkGjsAKdp2_4bake5baker14process_output014collect_outputNtNtCsdZUiPGx2Ac9_5tokio7process11ChildStdoutE0Cs7jFFKzxOOLS_11baker_tests
FN:403,_RNCNCNvNtCs4EkGjsAKdp2_4bake5baker10run_recipe00Cs7jFFKzxOOLS_11baker_tests
FN:422,_RNCNCNvNtCs4EkGjsAKdp2_4bake5baker10run_recipe0s_0Cs7jFFKzxOOLS_11baker_tests
FN:563,_RNCNCNvNtCs4EkGjsAKdp2_4bake5baker14process_output00Cs7jFFKzxOOLS_11baker_tests
FN:320,_RNCNCNvNtCs4EkGjsAKdp2_4bake5baker30manage_single_recipe_execution00Cs7jFFKzxOOLS_11baker_tests
FN:85,_RNCNCNvNtCs4EkGjsAKdp2_4bake5baker4bake00Cs7jFFKzxOOLS_11baker_tests
FN:398,_RNCNvNtCs4EkGjsAKdp2_4bake5baker10run_recipe0Cs7jFFKzxOOLS_11baker_tests
FN:521,_RNCNvNtCs4EkGjsAKdp2_4bake5baker14process_output0Cs7jFFKzxOOLS_11baker_tests
FN:300,_RNCNvNtCs4EkGjsAKdp2_4bake5baker30manage_single_recipe_execution0Cs7jFFKzxOOLS_11baker_tests
FN:38,_RNCNvNtCs4EkGjsAKdp2_4bake5baker4bake0Cs7jFFKzxOOLS_11baker_tests
FNDA:0,_RINvNCNvNtCs4EkGjsAKdp2_4bake5baker14process_output014collect_outputNtNtCsdZUiPGx2Ac9_5tokio7process11ChildStderrECs6G5DyER1L5a_4bake
FNDA:0,_RINvNCNvNtCs4EkGjsAKdp2_4bake5baker14process_output014collect_outputNtNtCsdZUiPGx2Ac9_5tokio7process11ChildStdoutECs6G5DyER1L5a_4bake
FNDA:0,_RNCINvNCNvNtCs4EkGjsAKdp2_4bake5baker14process_output014collect_outputNtNtCsdZUiPGx2Ac9_5tokio7process11ChildStderrE0Cs6G5DyER1L5a_4bake
FNDA:0,_RNCINvNCNvNtCs4EkGjsAKdp2_4bake5baker14process_output014collect_outputNtNtCsdZUiPGx2Ac9_5tokio7process11ChildStdoutE0Cs6G5DyER1L5a_4bake
FNDA:0,_RNCNCNvNtCs4EkGjsAKdp2_4bake5baker10run_recipe00Cs6G5DyER1L5a_4bake
FNDA:0,_RNCNCNvNtCs4EkGjsAKdp2_4bake5baker10run_recipe0s_0Cs6G5DyER1L5a_4bake
FNDA:0,_RNCNCNvNtCs4EkGjsAKdp2_4bake5baker14process_output00Cs6G5DyER1L5a_4bake
FNDA:0,_RNCNCNvNtCs4EkGjsAKdp2_4bake5baker30manage_single_recipe_execution00Cs6G5DyER1L5a_4bake
FNDA:0,_RNCNCNvNtCs4EkGjsAKdp2_4bake5baker4bake00Cs6G5DyER1L5a_4bake
FNDA:0,_RNCNvNtCs4EkGjsAKdp2_4bake5baker10run_recipe0Cs6G5DyER1L5a_4bake
FNDA:0,_RNCNvNtCs4EkGjsAKdp2_4bake5baker14process_output0Cs6G5DyER1L5a_4bake
FNDA:0,_RNCNvNtCs4EkGjsAKdp2_4bake5baker30manage_single_recipe_execution0Cs6G5DyER1L5a_4bake
FNDA:0,_RNCNvNtCs4EkGjsAKdp2_4bake5baker4bake0Cs6G5DyER1L5a_4bake
FNDA:0,_RINvNCNvNtCs4EkGjsAKdp2_4bake5baker14process_output014collect_outputpEB8_
FNDA:0,_RNCINvNCNvNtCs4EkGjsAKdp2_4bake5baker14process_output014collect_outputpE0Ba_
FNDA:0,_RNCNCNvNtCs4EkGjsAKdp2_4bake5baker10run_recipe00B7_
FNDA:0,_RNCNCNvNtCs4EkGjsAKdp2_4bake5baker10run_recipe0s_0B7_
FNDA:0,_RNCNCNvNtCs4EkGjsAKdp2_4bake5baker14process_output00B7_
FNDA:0,_RNCNCNvNtCs4EkGjsAKdp2_4bake5baker30manage_single_recipe_execution00B7_
FNDA:0,_RNCNCNvNtCs4EkGjsAKdp2_4bake5baker4bake00B7_
FNDA:0,_RNCNvNtCs4EkGjsAKdp2_4bake5baker10run_recipe0B5_
FNDA:0,_RNCNvNtCs4EkGjsAKdp2_4bake5baker14process_output0B5_
FNDA:0,_RNCNvNtCs4EkGjsAKdp2_4bake5baker30manage_single_recipe_execution0B5_
FNDA:0,_RNCNvNtCs4EkGjsAKdp2_4bake5baker4bake0B5_
FNDA:21,_RNvNtCs4EkGjsAKdp2_4bake5baker10run_recipe
FNDA:18,_RNvNtCs4EkGjsAKdp2_4bake5baker14println_recipe
FNDA:21,_RNvNtCs4EkGjsAKdp2_4bake5baker14process_output
FNDA:18,_RNvNtCs4EkGjsAKdp2_4bake5baker18name_to_term_color
FNDA:7,_RNvNtCs4EkGjsAKdp2_4bake5baker21process_final_results
FNDA:1,_RNvNtCs4EkGjsAKdp2_4bake5baker26handle_fast_fail_for_level
FNDA:21,_RNvNtCs4EkGjsAKdp2_4bake5baker30manage_single_recipe_execution
FNDA:8,_RNvNtCs4EkGjsAKdp2_4bake5baker4bake
FNDA:0,_RNCNvNtCs4EkGjsAKdp2_4bake5baker21process_final_results0B5_
FNDA:0,_RNCNvNtCs4EkGjsAKdp2_4bake5baker21process_final_resultss_0B5_
FNDA:0,_RNCNvNtCs4EkGjsAKdp2_4bake5baker26handle_fast_fail_for_level0B5_
FNDA:1,_RNCNvNtCs4EkGjsAKdp2_4bake5baker26handle_fast_fail_for_levels0_0B5_
FNDA:1,_RNCNvNtCs4EkGjsAKdp2_4bake5baker26handle_fast_fail_for_levels_0B5_
FNDA:0,_RINvNCNvNtCs1lk7uXtNODC_4bake5baker14process_output014collect_outputNtNtCsdZUiPGx2Ac9_5tokio7process11ChildStderrEB8_
FNDA:0,_RINvNCNvNtCs1lk7uXtNODC_4bake5baker14process_output014collect_outputNtNtCsdZUiPGx2Ac9_5tokio7process11ChildStdoutEB8_
FNDA:0,_RNCINvNCNvNtCs1lk7uXtNODC_4bake5baker14process_output014collect_outputNtNtCsdZUiPGx2Ac9_5tokio7process11ChildStderrE0Ba_
FNDA:0,_RNCINvNCNvNtCs1lk7uXtNODC_4bake5baker14process_output014collect_outputNtNtCsdZUiPGx2Ac9_5tokio7process11ChildStdoutE0Ba_
FNDA:0,_RNCNCNvNtCs1lk7uXtNODC_4bake5baker10run_recipe00B7_
FNDA:0,_RNCNCNvNtCs1lk7uXtNODC_4bake5baker10run_recipe0s_0B7_
FNDA:0,_RNCNCNvNtCs1lk7uXtNODC_4bake5baker14process_output00B7_
FNDA:0,_RNCNCNvNtCs1lk7uXtNODC_4bake5baker30manage_single_recipe_execution00B7_
FNDA:0,_RNCNCNvNtCs1lk7uXtNODC_4bake5baker4bake00B7_
FNDA:0,_RNCNvNtCs1lk7uXtNODC_4bake5baker10run_recipe0B5_
FNDA:0,_RNCNvNtCs1lk7uXtNODC_4bake5baker14process_output0B5_
FNDA:0,_RNCNvNtCs1lk7uXtNODC_4bake5baker21process_final_results0B5_
FNDA:0,_RNCNvNtCs1lk7uXtNODC_4bake5baker21process_final_resultss_0B5_
FNDA:0,_RNCNvNtCs1lk7uXtNODC_4bake5baker26handle_fast_fail_for_level0B5_
FNDA:0,_RNCNvNtCs1lk7uXtNODC_4bake5baker26handle_fast_fail_for_levels0_0B5_
FNDA:0,_RNCNvNtCs1lk7uXtNODC_4bake5baker26handle_fast_fail_for_levels_0B5_
FNDA:0,_RNCNvNtCs1lk7uXtNODC_4bake5baker30manage_single_recipe_execution0B5_
FNDA:0,_RNCNvNtCs1lk7uXtNODC_4bake5baker4bake0B5_
FNDA:0,_RNvNtCs1lk7uXtNODC_4bake5baker10run_recipe
FNDA:0,_RNvNtCs1lk7uXtNODC_4bake5baker14println_recipe
FNDA:0,_RNvNtCs1lk7uXtNODC_4bake5baker14process_output
FNDA:0,_RNvNtCs1lk7uXtNODC_4bake5baker18name_to_term_color
FNDA:0,_RNvNtCs1lk7uXtNODC_4bake5baker21process_final_results
FNDA:0,_RNvNtCs1lk7uXtNODC_4bake5baker26handle_fast_fail_for_level
FNDA:0,_RNvNtCs1lk7uXtNODC_4bake5baker30manage_single_recipe_execution
FNDA:0,_RNvNtCs1lk7uXtNODC_4bake5baker4bake
FNDA:21,_RINvNCNvNtCs4EkGjsAKdp2_4bake5baker14process_output014collect_outputNtNtCsdZUiPGx2Ac9_5tokio7process11ChildStderrECs7jFFKzxOOLS_11baker_tests
FNDA:21,_RINvNCNvNtCs4EkGjsAKdp2_4bake5baker14process_output014collect_outputNtNtCsdZUiPGx2Ac9_5tokio7process11ChildStdoutECs7jFFKzxOOLS_11baker_tests
FNDA:21,_RNCINvNCNvNtCs4EkGjsAKdp2_4bake5baker14process_output014collect_outputNtNtCsdZUiPGx2Ac9_5tokio7process11ChildStderrE0Cs7jFFKzxOOLS_11baker_tests
FNDA:21,_RNCINvNCNvNtCs4EkGjsAKdp2_4bake5baker14process_output014collect_outputNtNtCsdZUiPGx2Ac9_5tokio7process11ChildStdoutE0Cs7jFFKzxOOLS_11baker_tests
FNDA:0,_RNCNCNvNtCs4EkGjsAKdp2_4bake5baker10run_recipe00Cs7jFFKzxOOLS_11baker_tests
FNDA:0,_RNCNCNvNtCs4EkGjsAKdp2_4bake5baker10run_recipe0s_0Cs7jFFKzxOOLS_11baker_tests
FNDA:0,_RNCNCNvNtCs4EkGjsAKdp2_4bake5baker14process_output00Cs7jFFKzxOOLS_11baker_tests
FNDA:21,_RNCNCNvNtCs4EkGjsAKdp2_4bake5baker30manage_single_recipe_execution00Cs7jFFKzxOOLS_11baker_tests
FNDA:21,_RNCNCNvNtCs4EkGjsAKdp2_4bake5baker4bake00Cs7jFFKzxOOLS_11baker_tests
FNDA:21,_RNCNvNtCs4EkGjsAKdp2_4bake5baker10run_recipe0Cs7jFFKzxOOLS_11baker_tests
FNDA:21,_RNCNvNtCs4EkGjsAKdp2_4bake5baker14process_output0Cs7jFFKzxOOLS_11baker_tests
FNDA:21,_RNCNvNtCs4EkGjsAKdp2_4bake5baker30manage_single_recipe_execution0Cs7jFFKzxOOLS_11baker_tests
FNDA:8,_RNCNvNtCs4EkGjsAKdp2_4bake5baker4bake0Cs7jFFKzxOOLS_11baker_tests
FNF:24
FNH:18
DA:33,8
DA:34,8
DA:35,8
DA:36,8
DA:37,8
DA:38,8
DA:40,8
DA:42,8
DA:43,0
DA:44,0
DA:45,8
DA:48,8
DA:49,0
DA:50,8
DA:52,8
DA:53,8
DA:54,8
DA:55,8
DA:57,8
DA:58,8
DA:60,10
DA:61,10
DA:62,0
DA:63,10
DA:64,10
DA:65,0
DA:67,0
DA:70,10
DA:71,10
DA:73,31
DA:74,21
DA:75,21
DA:76,21
DA:77,21
DA:78,21
DA:82,21
DA:83,21
DA:85,21
DA:86,21
DA:87,21
DA:88,21
DA:90,0
DA:91,0
DA:92,0
DA:93,0
DA:94,0
DA:95,0
DA:96,0
DA:97,0
DA:98,0
DA:103,21
DA:104,15
DA:105,15
DA:106,15
DA:107,15
DA:108,15
DA:109,15
DA:111,6
DA:114,21
DA:117,21
DA:119,21
DA:120,0
DA:121,0
DA:122,0
DA:123,0
DA:124,0
DA:125,0
DA:126,0
DA:127,0
DA:128,0
DA:129,0
DA:130,0
DA:133,21
DA:134,21
DA:135,21
DA:136,21
DA:137,21
DA:138,21
DA:139,19
DA:142,19
DA:143,19
DA:144,19
DA:145,19
DA:146,19
DA:147,19
DA:148,19
DA:152,10
DA:153,28
DA:156,28
DA:157,0
DA:158,0
DA:159,0
DA:161,0
DA:162,0
DA:163,0
DA:164,0
DA:167,28
DA:169,19
DA:170,19
DA:171,19
DA:172,19
DA:173,1
DA:174,1
DA:175,1
DA:176,1
DA:177,1
DA:178,1
DA:179,1
DA:180,18
DA:182,0
DA:183,0
DA:184,0
DA:185,0
DA:186,0
DA:187,0
DA:188,0
DA:189,0
DA:190,0
DA:191,0
DA:192,0
DA:193,0
DA:197,19
DA:198,1
DA:199,18
DA:201,10
DA:203,12
DA:204,10
DA:207,10
DA:208,1
DA:209,9
DA:213,7
DA:215,7
DA:216,8
DA:219,1
DA:220,1
DA:221,1
DA:222,1
DA:223,1
DA:224,1
DA:225,1
DA:226,1
DA:227,1
DA:228,1
DA:229,1
DA:230,1
DA:231,1
DA:233,1
DA:235,1
DA:236,1
DA:238,1
DA:239,1
DA:240,1
DA:241,1
DA:242,1
DA:244,1
DA:249,0
DA:251,1
DA:254,7
DA:255,7
DA:256,7
DA:257,7
DA:258,7
DA:259,0
DA:260,0
DA:261,0
DA:262,0
DA:263,0
DA:264,0
DA:265,0
DA:266,0
DA:267,0
DA:268,0
DA:269,0
DA:270,0
DA:272,0
DA:274,0
DA:275,0
DA:277,0
DA:278,0
DA:279,0
DA:280,0
DA:281,0
DA:287,0
DA:289,7
DA:290,7
DA:291,7
DA:294,21
DA:295,21
DA:296,21
DA:297,21
DA:298,21
DA:299,21
DA:300,21
DA:301,21
DA:302,21
DA:303,21
DA:304,21
DA:305,21
DA:307,21
DA:309,21
DA:310,0
DA:311,0
DA:312,0
DA:313,0
DA:314,0
DA:315,0
DA:316,0
DA:317,0
DA:318,0
DA:320,21
DA:322,21
DA:323,0
DA:325,0
DA:326,0
DA:327,0
DA:328,0
DA:329,0
DA:330,0
DA:331,0
DA:332,0
DA:333,0
DA:334,0
DA:335,0
DA:338,0
DA:342,21
DA:345,21
DA:346,21
DA:347,15
DA:348,15
DA:349,21
DA:350,21
DA:351,21
DA:352,21
DA:353,21
DA:355,18
DA:356,18
DA:357,0
DA:358,0
DA:359,0
DA:360,0
DA:361,18
DA:362,18
DA:363,12
DA:364,12
DA:365,12
DA:366,12
DA:367,12
DA:368,12
DA:370,1
DA:371,1
DA:372,1
DA:373,1
DA:374,1
DA:375,1
DA:376,1
DA:377,1
DA:378,1
DA:379,1
DA:382,19
DA:384,19
DA:385,19
DA:394,21
DA:395,21
DA:396,21
DA:397,21
DA:398,21
DA:399,21
DA:400,21
DA:401,21
DA:402,21
DA:403,21
DA:404,21
DA:406,21
DA:407,21
DA:408,0
DA:410,21
DA:413,21
DA:414,21
DA:415,21
DA:416,6
DA:417,6
DA:418,6
DA:420,15
DA:421,21
DA:422,21
DA:423,0
DA:424,0
DA:425,0
DA:427,0
DA:428,21
DA:429,21
DA:430,21
DA:431,21
DA:432,21
DA:434,21
DA:435,21
DA:436,21
DA:437,21
DA:438,21
DA:439,21
DA:440,21
DA:441,21
DA:442,21
DA:443,21
DA:444,21
DA:446,21
DA:447,19
DA:448,1
DA:449,1
DA:450,1
DA:451,1
DA:452,1
DA:453,18
DA:454,0
DA:455,18
DA:456,0
DA:457,0
DA:458,0
DA:459,0
DA:460,0
DA:461,18
DA:463,0
DA:464,0
DA:465,0
DA:466,0
DA:467,0
DA:468,0
DA:471,18
DA:472,18
DA:473,6
DA:474,6
DA:475,6
DA:477,12
DA:478,18
DA:479,19
DA:483,18
DA:487,18
DA:488,18
DA:489,18
DA:490,18
DA:493,18
DA:494,0
DA:495,18
DA:496,18
DA:497,15
DA:500,18
DA:501,18
DA:515,21
DA:516,21
DA:517,21
DA:518,21
DA:519,21
DA:520,21
DA:521,21
DA:522,21
DA:523,21
DA:526,42
DA:527,42
DA:528,42
DA:529,42
DA:530,42
DA:531,42
DA:532,42
DA:533,60
DA:534,18
DA:535,6
DA:536,12
DA:537,18
DA:538,18
DA:539,18
DA:541,38
DA:543,21
DA:544,21
DA:545,21
DA:546,21
DA:547,21
DA:550,21
DA:551,21
DA:552,21
DA:553,21
DA:554,21
DA:557,59
DA:559,19
DA:560,18
DA:561,18
DA:562,18
DA:563,18
DA:564,18
DA:565,18
DA:566,18
DA:567,0
DA:568,0
DA:569,0
DA:570,0
DA:571,0
DA:572,0
DA:573,18
DA:575,0
DA:576,0
DA:577,0
DA:578,0
DA:579,0
DA:580,0
DA:581,0
DA:585,18
DA:586,18
DA:589,18
DA:590,18
DA:591,18
DA:592,18
DA:593,18
BRF:0
BRH:0
LF:427
LH:296
end_of_record
SF:/Users/theoribeiro/Dev/tools/bake/src/cache/builder.rs
FN:64,_RNCNvMNtNtCs4EkGjsAKdp2_4bake5cache7builderNtB4_12CacheBuilder17build_for_recipes0Cs6G5DyER1L5a_4bake
FN:64,_RNCNvMNtNtCs4EkGjsAKdp2_4bake5cache7builderNtB4_12CacheBuilder17build_for_recipes0B8_
FN:37,_RINvMNtNtCs4EkGjsAKdp2_4bake5cache7builderNtB3_12CacheBuilder12add_strategyNvYNtNtB5_2s315S3CacheStrategyNtB5_13CacheStrategy11from_configEB7_
FN:37,_RINvMNtNtCs4EkGjsAKdp2_4bake5cache7builderNtB3_12CacheBuilder12add_strategyNvYNtNtB5_3gcs16GcsCacheStrategyNtB5_13CacheStrategy11from_configEB7_
FN:37,_RINvMNtNtCs4EkGjsAKdp2_4bake5cache7builderNtB3_12CacheBuilder12add_strategyNvYNtNtB5_5local18LocalCacheStrategyNtB5_13CacheStrategy11from_configEB7_
FN:64,_RNvMNtNtCs4EkGjsAKdp2_4bake5cache7builderNtB2_12CacheBuilder17build_for_recipes
FN:30,_RNvMNtNtCs4EkGjsAKdp2_4bake5cache7builderNtB2_12CacheBuilder18default_strategies
FN:50,_RNvMNtNtCs4EkGjsAKdp2_4bake5cache7builderNtB2_12CacheBuilder28calculate_hashes_for_recipes
FN:23,_RNvMNtNtCs4EkGjsAKdp2_4bake5cache7builderNtB2_12CacheBuilder3new
FN:37,_RINvMNtNtCs1lk7uXtNODC_4bake5cache7builderNtB3_12CacheBuilder12add_strategyNvYNtNtB3_5tests17TestCacheStrategyNtB5_13CacheStrategy11from_configEB7_
FN:37,_RINvMNtNtCs1lk7uXtNODC_4bake5cache7builderNtB3_12CacheBuilder12add_strategyNvYNtNtB5_2s315S3CacheStrategyNtB5_13CacheStrategy11from_configEB7_
FN:37,_RINvMNtNtCs1lk7uXtNODC_4bake5cache7builderNtB3_12CacheBuilder12add_strategyNvYNtNtB5_3gcs16GcsCacheStrategyNtB5_13CacheStrategy11from_configEB7_
FN:37,_RINvMNtNtCs1lk7uXtNODC_4bake5cache7builderNtB3_12CacheBuilder12add_strategyNvYNtNtB5_4test17TestCacheStrategyNtB5_13CacheStrategy11from_configEB7_
FN:37,_RINvMNtNtCs1lk7uXtNODC_4bake5cache7builderNtB3_12CacheBuilder12add_strategyNvYNtNtB5_5local18LocalCacheStrategyNtB5_13CacheStrategy11from_configEB7_
FN:64,_RNCNvMNtNtCs1lk7uXtNODC_4bake5cache7builderNtB4_12CacheBuilder17build_for_recipes0B8_
FN:118,_RNvNtNtNtCs1lk7uXtNODC_4bake5cache7builder5tests19create_test_project
FN:172,_RNvNtNtNtCs1lk7uXtNODC_4bake5cache7builder5testss_22test_new_cache_builder
FN:198,_RNvNtNtNtCs1lk7uXtNODC_4bake5cache7builder5testss_28test_build_with_config_order
FN:179,_RNvNtNtNtCs1lk7uXtNODC_4bake5cache7builder5testss_29test_default_strategies_added
FN:189,_RNvNtNtNtCs1lk7uXtNODC_4bake5cache7builder5testss_30test_add_custom_strategy_added
FN:270,_RNvNtNtNtCs1lk7uXtNODC_4bake5cache7builder5testss_33test_build_for_recipes_empty_list
FN:255,_RNvNtNtNtCs1lk7uXtNODC_4bake5cache7builder5testss_34test_build_for_recipes_with_subset
FN:217,_RNvNtNtNtCs1lk7uXtNODC_4bake5cache7builder5testss_40test_build_with_default_order_local_only
FN:285,_RNvNtNtNtCs1lk7uXtNODC_4bake5cache7builder5testss_40test_calculate_hashes_for_recipes_direct
FN:236,_RNvNtNtNtCs1lk7uXtNODC_4bake5cache7builder5testss_44test_build_with_default_order_s3_gcs_enabled
FN:300,_RNvNtNtNtCs1lk7uXtNODC_4bake5cache7builder5testss_45test_build_fails_on_missing_strategy_in_order
FN:156,_RNvNtNtNtCs1lk7uXtNODC_4bake5cache7builder5testss_5build
FN:150,_RNvXs1_NtNtNtCs1lk7uXtNODC_4bake5cache7builder5testsNtB5_17TestCacheStrategyNtB9_13CacheStrategy11from_config
FN:140,_RNvXs1_NtNtNtCs1lk7uXtNODC_4bake5cache7builder5testsNtB5_17TestCacheStrategyNtB9_13CacheStrategy3get
FN:146,_RNvXs1_NtNtNtCs1lk7uXtNODC_4bake5cache7builder5testsNtB5_17TestCacheStrategyNtB9_13CacheStrategy3put
FN:172,_RNCNvNtNtNtCs1lk7uXtNODC_4bake5cache7builder5testss_22test_new_cache_builder0B9_
FN:198,_RNCNvNtNtNtCs1lk7uXtNODC_4bake5cache7builder5testss_28test_build_with_config_order0B9_
FN:179,_RNCNvNtNtNtCs1lk7uXtNODC_4bake5cache7builder5testss_29test_default_strategies_added0B9_
FN:189,_RNCNvNtNtNtCs1lk7uXtNODC_4bake5cache7builder5testss_30test_add_custom_strategy_added0B9_
FN:270,_RNCNvNtNtNtCs1lk7uXtNODC_4bake5cache7builder5testss_33test_build_for_recipes_empty_list0B9_
FN:255,_RNCNvNtNtNtCs1lk7uXtNODC_4bake5cache7builder5testss_34test_build_for_recipes_with_subset0B9_
FN:217,_RNCNvNtNtNtCs1lk7uXtNODC_4bake5cache7builder5testss_40test_build_with_default_order_local_only0B9_
FN:285,_RNCNvNtNtNtCs1lk7uXtNODC_4bake5cache7builder5testss_40test_calculate_hashes_for_recipes_direct0B9_
FN:236,_RNCNvNtNtNtCs1lk7uXtNODC_4bake5cache7builder5testss_44test_build_with_default_order_s3_gcs_enabled0B9_
FN:300,_RNCNvNtNtNtCs1lk7uXtNODC_4bake5cache7builder5testss_45test_build_fails_on_missing_strategy_in_order0B9_
FN:156,_RNCNvNtNtNtCs1lk7uXtNODC_4bake5cache7builder5testss_5build0B9_
FN:150,_RNCNvXs1_NtNtNtCs1lk7uXtNODC_4bake5cache7builder5testsNtB7_17TestCacheStrategyNtBb_13CacheStrategy11from_config0Bd_
FN:140,_RNCNvXs1_NtNtNtCs1lk7uXtNODC_4bake5cache7builder5testsNtB7_17TestCacheStrategyNtBb_13CacheStrategy3get0Bd_
FN:146,_RNCNvXs1_NtNtNtCs1lk7uXtNODC_4bake5cache7builder5testsNtB7_17TestCacheStrategyNtBb_13CacheStrategy3put0Bd_
FN:64,_RNvMNtNtCs1lk7uXtNODC_4bake5cache7builderNtB2_12CacheBuilder17build_for_recipes
FN:30,_RNvMNtNtCs1lk7uXtNODC_4bake5cache7builderNtB2_12CacheBuilder18default_strategies
FN:50,_RNvMNtNtCs1lk7uXtNODC_4bake5cache7builderNtB2_12CacheBuilder28calculate_hashes_for_recipes
FN:23,_RNvMNtNtCs1lk7uXtNODC_4bake5cache7builderNtB2_12CacheBuilder3new
FN:37,_RINvMNtNtCs4EkGjsAKdp2_4bake5cache7builderNtB3_12CacheBuilder12add_strategyNvYNtCs7jFFKzxOOLS_11baker_tests17TestCacheStrategyNtB5_13CacheStrategy11from_configEB1g_
FN:64,_RNCNvMNtNtCs4EkGjsAKdp2_4bake5cache7builderNtB4_12CacheBuilder17build_for_recipes0Cs7jFFKzxOOLS_11baker_tests
FN:64,_RNCNvMNtNtCs4EkGjsAKdp2_4bake5cache7builderNtB4_12CacheBuilder17build_for_recipes0Cs84hT2GWzdHm_11cache_tests
FNDA:0,_RNCNvMNtNtCs4EkGjsAKdp2_4bake5cache7builderNtB4_12CacheBuilder17build_for_recipes0Cs6G5DyER1L5a_4bake
FNDA:0,_RNCNvMNtNtCs4EkGjsAKdp2_4bake5cache7builderNtB4_12CacheBuilder17build_for_recipes0B8_
FNDA:3,_RINvMNtNtCs4EkGjsAKdp2_4bake5cache7builderNtB3_12CacheBuilder12add_strategyNvYNtNtB5_2s315S3CacheStrategyNtB5_13CacheStrategy11from_configEB7_
FNDA:3,_RINvMNtNtCs4EkGjsAKdp2_4bake5cache7builderNtB3_12CacheBuilder12add_strategyNvYNtNtB5_3gcs16GcsCacheStrategyNtB5_13CacheStrategy11from_configEB7_
FNDA:3,_RINvMNtNtCs4EkGjsAKdp2_4bake5cache7builderNtB3_12CacheBuilder12add_strategyNvYNtNtB5_5local18LocalCacheStrategyNtB5_13CacheStrategy11from_configEB7_
FNDA:11,_RNvMNtNtCs4EkGjsAKdp2_4bake5cache7builderNtB2_12CacheBuilder17build_for_recipes
FNDA:3,_RNvMNtNtCs4EkGjsAKdp2_4bake5cache7builderNtB2_12CacheBuilder18default_strategies
FNDA:11,_RNvMNtNtCs4EkGjsAKdp2_4bake5cache7builderNtB2_12CacheBuilder28calculate_hashes_for_recipes
FNDA:11,_RNvMNtNtCs4EkGjsAKdp2_4bake5cache7builderNtB2_12CacheBuilder3new
FNDA:14,_RINvMNtNtCs1lk7uXtNODC_4bake5cache7builderNtB3_12CacheBuilder12add_strategyNvYNtNtB3_5tests17TestCacheStrategyNtB5_13CacheStrategy11from_configEB7_
FNDA:3,_RINvMNtNtCs1lk7uXtNODC_4bake5cache7builderNtB3_12CacheBuilder12add_strategyNvYNtNtB5_2s315S3CacheStrategyNtB5_13CacheStrategy11from_configEB7_
FNDA:3,_RINvMNtNtCs1lk7uXtNODC_4bake5cache7builderNtB3_12CacheBuilder12add_strategyNvYNtNtB5_3gcs16GcsCacheStrategyNtB5_13CacheStrategy11from_configEB7_
FNDA:3,_RINvMNtNtCs1lk7uXtNODC_4bake5cache7builderNtB3_12CacheBuilder12add_strategyNvYNtNtB5_4test17TestCacheStrategyNtB5_13CacheStrategy11from_configEB7_
FNDA:3,_RINvMNtNtCs1lk7uXtNODC_4bake5cache7builderNtB3_12CacheBuilder12add_strategyNvYNtNtB5_5local18LocalCacheStrategyNtB5_13CacheStrategy11from_configEB7_
FNDA:8,_RNCNvMNtNtCs1lk7uXtNODC_4bake5cache7builderNtB4_12CacheBuilder17build_for_recipes0B8_
FNDA:11,_RNvNtNtNtCs1lk7uXtNODC_4bake5cache7builder5tests19create_test_project
FNDA:1,_RNvNtNtNtCs1lk7uXtNODC_4bake5cache7builder5testss_22test_new_cache_builder
FNDA:1,_RNvNtNtNtCs1lk7uXtNODC_4bake5cache7builder5testss_28test_build_with_config_order
FNDA:1,_RNvNtNtNtCs1lk7uXtNODC_4bake5cache7builder5testss_29test_default_strategies_added
FNDA:1,_RNvNtNtNtCs1lk7uXtNODC_4bake5cache7builder5testss_30test_add_custom_strategy_added
FNDA:1,_RNvNtNtNtCs1lk7uXtNODC_4bake5cache7builder5testss_33test_build_for_recipes_empty_list
FNDA:1,_RNvNtNtNtCs1lk7uXtNODC_4bake5cache7builder5testss_34test_build_for_recipes_with_subset
FNDA:1,_RNvNtNtNtCs1lk7uXtNODC_4bake5cache7builder5testss_40test_build_with_default_order_local_only
FNDA:1,_RNvNtNtNtCs1lk7uXtNODC_4bake5cache7builder5testss_40test_calculate_hashes_for_recipes_direct
FNDA:1,_RNvNtNtNtCs1lk7uXtNODC_4bake5cache7builder5testss_44test_build_with_default_order_s3_gcs_enabled
FNDA:1,_RNvNtNtNtCs1lk7uXtNODC_4bake5cache7builder5testss_45test_build_fails_on_missing_strategy_in_order
FNDA:1,_RNvNtNtNtCs1lk7uXtNODC_4bake5cache7builder5testss_5build
FNDA:5,_RNvXs1_NtNtNtCs1lk7uXtNODC_4bake5cache7builder5testsNtB5_17TestCacheStrategyNtB9_13CacheStrategy11from_config
FNDA:0,_RNvXs1_NtNtNtCs1lk7uXtNODC_4bake5cache7builder5testsNtB5_17TestCacheStrategyNtB9_13CacheStrategy3get
FNDA:0,_RNvXs1_NtNtNtCs1lk7uXtNODC_4bake5cache7builder5testsNtB5_17TestCacheStrategyNtB9_13CacheStrategy3put
FNDA:1,_RNCNvNtNtNtCs1lk7uXtNODC_4bake5cache7builder5testss_22test_new_cache_builder0B9_
FNDA:1,_RNCNvNtNtNtCs1lk7uXtNODC_4bake5cache7builder5testss_28test_build_with_config_order0B9_
FNDA:1,_RNCNvNtNtNtCs1lk7uXtNODC_4bake5cache7builder5testss_29test_default_strategies_added0B9_
FNDA:1,_RNCNvNtNtNtCs1lk7uXtNODC_4bake5cache7builder5testss_30test_add_custom_strategy_added0B9_
FNDA:1,_RNCNvNtNtNtCs1lk7uXtNODC_4bake5cache7builder5testss_33test_build_for_recipes_empty_list0B9_
FNDA:1,_RNCNvNtNtNtCs1lk7uXtNODC_4bake5cache7builder5testss_34test_build_for_recipes_with_subset0B9_
FNDA:1,_RNCNvNtNtNtCs1lk7uXtNODC_4bake5cache7builder5testss_40test_build_with_default_order_local_only0B9_
FNDA:1,_RNCNvNtNtNtCs1lk7uXtNODC_4bake5cache7builder5testss_40test_calculate_hashes_for_recipes_direct0B9_
FNDA:1,_RNCNvNtNtNtCs1lk7uXtNODC_4bake5cache7builder5testss_44test_build_with_default_order_s3_gcs_enabled0B9_
FNDA:1,_RNCNvNtNtNtCs1lk7uXtNODC_4bake5cache7builder5testss_45test_build_fails_on_missing_strategy_in_order0B9_
FNDA:1,_RNCNvNtNtNtCs1lk7uXtNODC_4bake5cache7builder5testss_5build0B9_
FNDA:5,_RNCNvXs1_NtNtNtCs1lk7uXtNODC_4bake5cache7builder5testsNtB7_17TestCacheStrategyNtBb_13CacheStrategy11from_config0Bd_
FNDA:0,_RNCNvXs1_NtNtNtCs1lk7uXtNODC_4bake5cache7builder5testsNtB7_17TestCacheStrategyNtBb_13CacheStrategy3get0Bd_
FNDA:0,_RNCNvXs1_NtNtNtCs1lk7uXtNODC_4bake5cache7builder5testsNtB7_17TestCacheStrategyNtBb_13CacheStrategy3put0Bd_
FNDA:8,_RNvMNtNtCs1lk7uXtNODC_4bake5cache7builderNtB2_12CacheBuilder17build_for_recipes
FNDA:3,_RNvMNtNtCs1lk7uXtNODC_4bake5cache7builderNtB2_12CacheBuilder18default_strategies
FNDA:9,_RNvMNtNtCs1lk7uXtNODC_4bake5cache7builderNtB2_12CacheBuilder28calculate_hashes_for_recipes
FNDA:12,_RNvMNtNtCs1lk7uXtNODC_4bake5cache7builderNtB2_12CacheBuilder3new
FNDA:24,_RINvMNtNtCs4EkGjsAKdp2_4bake5cache7builderNtB3_12CacheBuilder12add_strategyNvYNtCs7jFFKzxOOLS_11baker_tests17TestCacheStrategyNtB5_13CacheStrategy11from_configEB1g_
FNDA:8,_RNCNvMNtNtCs4EkGjsAKdp2_4bake5cache7builderNtB4_12CacheBuilder17build_for_recipes0Cs7jFFKzxOOLS_11baker_tests
FNDA:3,_RNCNvMNtNtCs4EkGjsAKdp2_4bake5cache7builderNtB4_12CacheBuilder17build_for_recipes0Cs84hT2GWzdHm_11cache_tests
FNF:32
FNH:30
DA:23,23
DA:24,23
DA:25,23
DA:26,23
DA:27,23
DA:28,23
DA:30,6
DA:31,6
DA:32,6
DA:33,6
DA:34,6
DA:35,6
DA:37,59
DA:38,59
DA:39,59
DA:40,59
DA:41,59
DA:42,59
DA:43,59
DA:45,59
DA:46,59
DA:47,59
DA:48,59
DA:50,20
DA:51,20
DA:52,20
DA:53,20
DA:55,20
DA:57,51
DA:58,31
DA:59,31
DA:61,20
DA:62,20
DA:64,19
DA:65,19
DA:67,19
DA:69,19
DA:70,16
DA:71,16
DA:72,16
DA:73,16
DA:74,0
DA:75,0
DA:76,0
DA:77,0
DA:78,0
DA:79,0
DA:80,16
DA:81,3
DA:83,38
DA:84,19
DA:85,19
DA:86,19
DA:88,0
DA:93,19
DA:94,19
DA:95,19
DA:97,19
DA:118,11
DA:119,11
DA:120,11
DA:121,11
DA:122,11
DA:123,11
DA:124,11
DA:125,11
DA:126,11
DA:127,11
DA:128,11
DA:129,11
DA:130,11
DA:140,0
DA:141,0
DA:142,0
DA:143,0
DA:144,0
DA:145,0
DA:146,0
DA:147,0
DA:148,0
DA:149,0
DA:150,10
DA:151,5
DA:152,10
DA:156,1
DA:157,1
DA:158,1
DA:160,1
DA:161,1
DA:162,1
DA:163,1
DA:164,1
DA:165,1
DA:166,1
DA:167,1
DA:168,1
DA:169,1
DA:172,1
DA:173,1
DA:174,1
DA:175,1
DA:176,1
DA:179,1
DA:180,1
DA:181,1
DA:182,1
DA:183,1
DA:184,1
DA:185,1
DA:186,1
DA:189,1
DA:190,1
DA:191,1
DA:192,1
DA:193,1
DA:194,1
DA:195,1
DA:198,1
DA:200,1
DA:202,1
DA:203,1
DA:204,1
DA:205,1
DA:206,1
DA:207,1
DA:208,1
DA:209,1
DA:210,1
DA:213,1
DA:214,1
DA:217,1
DA:219,1
DA:221,1
DA:222,1
DA:223,1
DA:224,1
DA:225,1
DA:226,1
DA:227,1
DA:228,1
DA:229,1
DA:232,1
DA:233,1
DA:236,1
DA:238,1
DA:240,1
DA:241,1
DA:242,1
DA:243,1
DA:244,1
DA:245,1
DA:246,1
DA:247,1
DA:248,1
DA:251,1
DA:252,1
DA:255,1
DA:256,1
DA:258,1
DA:259,1
DA:262,1
DA:263,1
DA:266,1
DA:267,1
DA:270,1
DA:271,1
DA:273,1
DA:274,1
DA:277,1
DA:278,1
DA:281,1
DA:282,1
DA:285,1
DA:286,1
DA:288,1
DA:291,1
DA:292,1
DA:293,1
DA:294,1
DA:296,1
DA:297,1
DA:300,1
DA:302,1
DA:304,1
DA:305,1
DA:306,1
DA:307,1
DA:308,1
DA:309,1
DA:310,1
DA:313,1
DA:314,1
BRF:0
BRH:0
LF:215
LH:197
end_of_record
SF:/Users/theoribeiro/Dev/tools/bake/src/cache/gcs.rs
FN:89,_RNvXs0_NtNtCs4EkGjsAKdp2_4bake5cache3gcsNtNtCsfLvRhEUTTUA_20google_cloud_storage6client6ClientNtB5_9GcsClient22upload_object_streamed
FN:59,_RNvXs0_NtNtCs4EkGjsAKdp2_4bake5cache3gcsNtNtCsfLvRhEUTTUA_20google_cloud_storage6client6ClientNtB5_9GcsClient24download_object_streamed
FN:73,_RNCNCNCNvXs0_NtNtCs4EkGjsAKdp2_4bake5cache3gcsNtNtCsfLvRhEUTTUA_20google_cloud_storage6client6ClientNtBb_9GcsClient24download_object_streamed0s_00Bf_
FN:93,_RNCNCNvXs0_NtNtCs4EkGjsAKdp2_4bake5cache3gcsNtNtCsfLvRhEUTTUA_20google_cloud_storage6client6ClientNtB9_9GcsClient22upload_object_streamed00Bd_
FN:64,_RNCNCNvXs0_NtNtCs4EkGjsAKdp2_4bake5cache3gcsNtNtCsfLvRhEUTTUA_20google_cloud_storage6client6ClientNtB9_9GcsClient24download_object_streamed00Bd_
FN:70,_RNCNCNvXs0_NtNtCs4EkGjsAKdp2_4bake5cache3gcsNtNtCsfLvRhEUTTUA_20google_cloud_storage6client6ClientNtB9_9GcsClient24download_object_streamed0s_0Bd_
FN:89,_RNCNvXs0_NtNtCs4EkGjsAKdp2_4bake5cache3gcsNtNtCsfLvRhEUTTUA_20google_cloud_storage6client6ClientNtB7_9GcsClient22upload_object_streamed0Bb_
FN:59,_RNCNvXs0_NtNtCs4EkGjsAKdp2_4bake5cache3gcsNtNtCsfLvRhEUTTUA_20google_cloud_storage6client6ClientNtB7_9GcsClient24download_object_streamed0Bb_
FN:228,_RNvMs_NtNtCs4EkGjsAKdp2_4bake5cache3gcsNtB4_16GcsCacheStrategy15new_for_testing
FN:278,_RNvMNtNtNtCs1lk7uXtNODC_4bake5cache3gcs5testsNtB2_13MockGcsClient11get_uploads
FN:273,_RNvMNtNtNtCs1lk7uXtNODC_4bake5cache3gcs5testsNtB2_13MockGcsClient16with_fail_upload
FN:263,_RNvMNtNtNtCs1lk7uXtNODC_4bake5cache3gcs5testsNtB2_13MockGcsClient18with_download_data
FN:268,_RNvMNtNtNtCs1lk7uXtNODC_4bake5cache3gcs5testsNtB2_13MockGcsClient18with_fail_download
FN:254,_RNvMNtNtNtCs1lk7uXtNODC_4bake5cache3gcs5testsNtB2_13MockGcsClient3new
FN:367,_RNvNtNtNtCs1lk7uXtNODC_4bake5cache3gcs5testss_13test_get_miss
FN:342,_RNvNtNtNtCs1lk7uXtNODC_4bake5cache3gcs5testss_16test_get_success
FN:387,_RNvNtNtNtCs1lk7uXtNODC_4bake5cache3gcs5testss_16test_put_success
FN:428,_RNvNtNtNtCs1lk7uXtNODC_4bake5cache3gcs5testss_23test_put_file_not_found
FN:411,_RNvNtNtNtCs1lk7uXtNODC_4bake5cache3gcs5testss_23test_put_upload_failure
FN:377,_RNvNtNtNtCs1lk7uXtNODC_4bake5cache3gcs5testss_25test_get_download_failure
FN:320,_RNvXs0_NtNtNtCs1lk7uXtNODC_4bake5cache3gcs5testsNtB5_13MockGcsClientNtB7_9GcsClient22upload_object_streamed
FN:289,_RNvXs0_NtNtNtCs1lk7uXtNODC_4bake5cache3gcs5testsNtB5_13MockGcsClientNtB7_9GcsClient24download_object_streamed
FN:299,_RNCNCNvXs0_NtNtNtCs1lk7uXtNODC_4bake5cache3gcs5testsNtB9_13MockGcsClientNtBb_9GcsClient24download_object_streamed00Bf_
FN:367,_RNCNvNtNtNtCs1lk7uXtNODC_4bake5cache3gcs5testss_13test_get_miss0B9_
FN:342,_RNCNvNtNtNtCs1lk7uXtNODC_4bake5cache3gcs5testss_16test_get_success0B9_
FN:387,_RNCNvNtNtNtCs1lk7uXtNODC_4bake5cache3gcs5testss_16test_put_success0B9_
FN:428,_RNCNvNtNtNtCs1lk7uXtNODC_4bake5cache3gcs5testss_23test_put_file_not_found0B9_
FN:411,_RNCNvNtNtNtCs1lk7uXtNODC_4bake5cache3gcs5testss_23test_put_upload_failure0B9_
FN:377,_RNCNvNtNtNtCs1lk7uXtNODC_4bake5cache3gcs5testss_25test_get_download_failure0B9_
FN:320,_RNCNvXs0_NtNtNtCs1lk7uXtNODC_4bake5cache3gcs5testsNtB7_13MockGcsClientNtB9_9GcsClient22upload_object_streamed0Bd_
FN:289,_RNCNvXs0_NtNtNtCs1lk7uXtNODC_4bake5cache3gcs5testsNtB7_13MockGcsClientNtB9_9GcsClient24download_object_streamed0Bd_
FN:73,_RNCNCNCNvXs0_NtNtCs1lk7uXtNODC_4bake5cache3gcsNtNtCsfLvRhEUTTUA_20google_cloud_storage6client6ClientNtBb_9GcsClient24download_object_streamed0s_00Bf_
FN:93,_RNCNCNvXs0_NtNtCs1lk7uXtNODC_4bake5cache3gcsNtNtCsfLvRhEUTTUA_20google_cloud_storage6client6ClientNtB9_9GcsClient22upload_object_streamed00Bd_
FN:64,_RNCNCNvXs0_NtNtCs1lk7uXtNODC_4bake5cache3gcsNtNtCsfLvRhEUTTUA_20google_cloud_storage6client6ClientNtB9_9GcsClient24download_object_streamed00Bd_
FN:70,_RNCNCNvXs0_NtNtCs1lk7uXtNODC_4bake5cache3gcsNtNtCsfLvRhEUTTUA_20google_cloud_storage6client6ClientNtB9_9GcsClient24download_object_streamed0s_0Bd_
FN:89,_RNCNvXs0_NtNtCs1lk7uXtNODC_4bake5cache3gcsNtNtCsfLvRhEUTTUA_20google_cloud_storage6client6ClientNtB7_9GcsClient22upload_object_streamed0Bb_
FN:59,_RNCNvXs0_NtNtCs1lk7uXtNODC_4bake5cache3gcsNtNtCsfLvRhEUTTUA_20google_cloud_storage6client6ClientNtB7_9GcsClient24download_object_streamed0Bb_
FN:228,_RNvMs_NtNtCs1lk7uXtNODC_4bake5cache3gcsNtB4_16GcsCacheStrategy15new_for_testing
FN:89,_RNvXs0_NtNtCs1lk7uXtNODC_4bake5cache3gcsNtNtCsfLvRhEUTTUA_20google_cloud_storage6client6ClientNtB5_9GcsClient22upload_object_streamed
FN:59,_RNvXs0_NtNtCs1lk7uXtNODC_4bake5cache3gcsNtNtCsfLvRhEUTTUA_20google_cloud_storage6client6ClientNtB5_9GcsClient24download_object_streamed
FNDA:0,_RNvXs0_NtNtCs4EkGjsAKdp2_4bake5cache3gcsNtNtCsfLvRhEUTTUA_20google_cloud_storage6client6ClientNtB5_9GcsClient22upload_object_streamed
FNDA:0,_RNvXs0_NtNtCs4EkGjsAKdp2_4bake5cache3gcsNtNtCsfLvRhEUTTUA_20google_cloud_storage6client6ClientNtB5_9GcsClient24download_object_streamed
FNDA:0,_RNCNCNCNvXs0_NtNtCs4EkGjsAKdp2_4bake5cache3gcsNtNtCsfLvRhEUTTUA_20google_cloud_storage6client6ClientNtBb_9GcsClient24download_object_streamed0s_00Bf_
FNDA:0,_RNCNCNvXs0_NtNtCs4EkGjsAKdp2_4bake5cache3gcsNtNtCsfLvRhEUTTUA_20google_cloud_storage6client6ClientNtB9_9GcsClient22upload_object_streamed00Bd_
FNDA:0,_RNCNCNvXs0_NtNtCs4EkGjsAKdp2_4bake5cache3gcsNtNtCsfLvRhEUTTUA_20google_cloud_storage6client6ClientNtB9_9GcsClient24download_object_streamed00Bd_
FNDA:0,_RNCNCNvXs0_NtNtCs4EkGjsAKdp2_4bake5cache3gcsNtNtCsfLvRhEUTTUA_20google_cloud_storage6client6ClientNtB9_9GcsClient24download_object_streamed0s_0Bd_
FNDA:0,_RNCNvXs0_NtNtCs4EkGjsAKdp2_4bake5cache3gcsNtNtCsfLvRhEUTTUA_20google_cloud_storage6client6ClientNtB7_9GcsClient22upload_object_streamed0Bb_
FNDA:0,_RNCNvXs0_NtNtCs4EkGjsAKdp2_4bake5cache3gcsNtNtCsfLvRhEUTTUA_20google_cloud_storage6client6ClientNtB7_9GcsClient24download_object_streamed0Bb_
FNDA:0,_RNvMs_NtNtCs4EkGjsAKdp2_4bake5cache3gcsNtB4_16GcsCacheStrategy15new_for_testing
FNDA:1,_RNvMNtNtNtCs1lk7uXtNODC_4bake5cache3gcs5testsNtB2_13MockGcsClient11get_uploads
FNDA:1,_RNvMNtNtNtCs1lk7uXtNODC_4bake5cache3gcs5testsNtB2_13MockGcsClient16with_fail_upload
FNDA:1,_RNvMNtNtNtCs1lk7uXtNODC_4bake5cache3gcs5testsNtB2_13MockGcsClient18with_download_data
FNDA:1,_RNvMNtNtNtCs1lk7uXtNODC_4bake5cache3gcs5testsNtB2_13MockGcsClient18with_fail_download
FNDA:6,_RNvMNtNtNtCs1lk7uXtNODC_4bake5cache3gcs5testsNtB2_13MockGcsClient3new
FNDA:1,_RNvNtNtNtCs1lk7uXtNODC_4bake5cache3gcs5testss_13test_get_miss
FNDA:1,_RNvNtNtNtCs1lk7uXtNODC_4bake5cache3gcs5testss_16test_get_success
FNDA:1,_RNvNtNtNtCs1lk7uXtNODC_4bake5cache3gcs5testss_16test_put_success
FNDA:1,_RNvNtNtNtCs1lk7uXtNODC_4bake5cache3gcs5testss_23test_put_file_not_found
FNDA:1,_RNvNtNtNtCs1lk7uXtNODC_4bake5cache3gcs5testss_23test_put_upload_failure
FNDA:1,_RNvNtNtNtCs1lk7uXtNODC_4bake5cache3gcs5testss_25test_get_download_failure
FNDA:2,_RNvXs0_NtNtNtCs1lk7uXtNODC_4bake5cache3gcs5testsNtB5_13MockGcsClientNtB7_9GcsClient22upload_object_streamed
FNDA:3,_RNvXs0_NtNtNtCs1lk7uXtNODC_4bake5cache3gcs5testsNtB5_13MockGcsClientNtB7_9GcsClient24download_object_streamed
FNDA:1,_RNCNCNvXs0_NtNtNtCs1lk7uXtNODC_4bake5cache3gcs5testsNtB9_13MockGcsClientNtBb_9GcsClient24download_object_streamed00Bf_
FNDA:1,_RNCNvNtNtNtCs1lk7uXtNODC_4bake5cache3gcs5testss_13test_get_miss0B9_
FNDA:1,_RNCNvNtNtNtCs1lk7uXtNODC_4bake5cache3gcs5testss_16test_get_success0B9_
FNDA:1,_RNCNvNtNtNtCs1lk7uXtNODC_4bake5cache3gcs5testss_16test_put_success0B9_
FNDA:1,_RNCNvNtNtNtCs1lk7uXtNODC_4bake5cache3gcs5testss_23test_put_file_not_found0B9_
FNDA:1,_RNCNvNtNtNtCs1lk7uXtNODC_4bake5cache3gcs5testss_23test_put_upload_failure0B9_
FNDA:1,_RNCNvNtNtNtCs1lk7uXtNODC_4bake5cache3gcs5testss_25test_get_download_failure0B9_
FNDA:2,_RNCNvXs0_NtNtNtCs1lk7uXtNODC_4bake5cache3gcs5testsNtB7_13MockGcsClientNtB9_9GcsClient22upload_object_streamed0Bd_
FNDA:3,_RNCNvXs0_NtNtNtCs1lk7uXtNODC_4bake5cache3gcs5testsNtB7_13MockGcsClientNtB9_9GcsClient24download_object_streamed0Bd_
FNDA:0,_RNCNCNCNvXs0_NtNtCs1lk7uXtNODC_4bake5cache3gcsNtNtCsfLvRhEUTTUA_20google_cloud_storage6client6ClientNtBb_9GcsClient24download_object_streamed0s_00Bf_
FNDA:0,_RNCNCNvXs0_NtNtCs1lk7uXtNODC_4bake5cache3gcsNtNtCsfLvRhEUTTUA_20google_cloud_storage6client6ClientNtB9_9GcsClient22upload_object_streamed00Bd_
FNDA:0,_RNCNCNvXs0_NtNtCs1lk7uXtNODC_4bake5cache3gcsNtNtCsfLvRhEUTTUA_20google_cloud_storage6client6ClientNtB9_9GcsClient24download_object_streamed00Bd_
FNDA:0,_RNCNCNvXs0_NtNtCs1lk7uXtNODC_4bake5cache3gcsNtNtCsfLvRhEUTTUA_20google_cloud_storage6client6ClientNtB9_9GcsClient24download_object_streamed0s_0Bd_
FNDA:0,_RNCNvXs0_NtNtCs1lk7uXtNODC_4bake5cache3gcsNtNtCsfLvRhEUTTUA_20google_cloud_storage6client6ClientNtB7_9GcsClient22upload_object_streamed0Bb_
FNDA:0,_RNCNvXs0_NtNtCs1lk7uXtNODC_4bake5cache3gcsNtNtCsfLvRhEUTTUA_20google_cloud_storage6client6ClientNtB7_9GcsClient24download_object_streamed0Bb_
FNDA:6,_RNvMs_NtNtCs1lk7uXtNODC_4bake5cache3gcsNtB4_16GcsCacheStrategy15new_for_testing
FNDA:0,_RNvXs0_NtNtCs1lk7uXtNODC_4bake5cache3gcsNtNtCsfLvRhEUTTUA_20google_cloud_storage6client6ClientNtB5_9GcsClient22upload_object_streamed
FNDA:0,_RNvXs0_NtNtCs1lk7uXtNODC_4bake5cache3gcsNtNtCsfLvRhEUTTUA_20google_cloud_storage6client6ClientNtB5_9GcsClient24download_object_streamed
FNF:27
FNH:21
DA:59,0
DA:61,0
DA:62,0
DA:63,0
DA:64,0
DA:67,0
DA:68,0
DA:70,0
DA:71,0
DA:72,0
DA:73,0
DA:75,0
DA:76,0
DA:77,0
DA:79,0
DA:81,0
DA:82,0
DA:89,0
DA:91,0
DA:92,0
DA:93,0
DA:94,0
DA:95,0
DA:228,6
DA:229,6
DA:230,6
DA:254,6
DA:255,6
DA:256,6
DA:257,6
DA:258,6
DA:259,6
DA:260,6
DA:261,6
DA:263,1
DA:264,1
DA:265,1
DA:266,1
DA:268,1
DA:269,1
DA:270,1
DA:271,1
DA:273,1
DA:274,1
DA:275,1
DA:276,1
DA:278,1
DA:279,1
DA:280,1
DA:289,6
DA:290,3
DA:291,1
DA:292,2
DA:294,2
DA:295,2
DA:296,1
DA:297,1
DA:299,1
DA:301,1
DA:302,1
DA:303,1
DA:304,0
DA:305,1
DA:307,1
DA:309,1
DA:311,1
DA:313,6
DA:320,4
DA:321,2
DA:322,1
DA:323,1
DA:325,1
DA:326,2
DA:327,1
DA:328,1
DA:329,0
DA:333,1
DA:334,1
DA:335,1
DA:336,1
DA:337,1
DA:338,4
DA:342,1
DA:343,1
DA:344,1
DA:345,1
DA:347,1
DA:348,1
DA:350,1
DA:352,1
DA:353,1
DA:354,1
DA:355,1
DA:356,1
DA:357,1
DA:358,1
DA:359,1
DA:360,1
DA:361,1
DA:362,1
DA:363,1
DA:364,1
DA:367,1
DA:368,1
DA:369,1
DA:370,1
DA:372,1
DA:373,1
DA:374,1
DA:377,1
DA:378,1
DA:379,1
DA:380,1
DA:382,1
DA:383,1
DA:384,1
DA:387,1
DA:388,1
DA:389,1
DA:390,1
DA:391,1
DA:395,1
DA:396,1
DA:397,1
DA:398,1
DA:399,1
DA:401,1
DA:402,1
DA:405,1
DA:406,1
DA:407,1
DA:408,1
DA:411,1
DA:412,1
DA:413,1
DA:414,1
DA:417,1
DA:418,1
DA:419,1
DA:420,1
DA:421,1
DA:423,1
DA:424,1
DA:425,1
DA:428,1
DA:429,1
DA:430,1
DA:431,1
DA:433,1
DA:434,1
DA:435,1
DA:436,1
DA:437,1
BRF:0
BRH:0
LF:176
LH:146
end_of_record
SF:/Users/theoribeiro/Dev/tools/bake/src/cache/local.rs
FN:71,_RNvXs0_NtNtCs4EkGjsAKdp2_4bake5cache5localNtB5_18LocalCacheStrategyNtB7_13CacheStrategy11from_config
FN:21,_RNvXs0_NtNtCs4EkGjsAKdp2_4bake5cache5localNtB5_18LocalCacheStrategyNtB7_13CacheStrategy3get
FN:36,_RNvXs0_NtNtCs4EkGjsAKdp2_4bake5cache5localNtB5_18LocalCacheStrategyNtB7_13CacheStrategy3put
FN:28,_RNCNCNvXs0_NtNtCs4EkGjsAKdp2_4bake5cache5localNtB9_18LocalCacheStrategyNtBb_13CacheStrategy3get00Bd_
FN:71,_RNCNvXs0_NtNtCs4EkGjsAKdp2_4bake5cache5localNtB7_18LocalCacheStrategyNtB9_13CacheStrategy11from_config0Bb_
FN:21,_RNCNvXs0_NtNtCs4EkGjsAKdp2_4bake5cache5localNtB7_18LocalCacheStrategyNtB9_13CacheStrategy3get0Bb_
FN:36,_RNCNvXs0_NtNtCs4EkGjsAKdp2_4bake5cache5localNtB7_18LocalCacheStrategyNtB9_13CacheStrategy3put0Bb_
FN:132,_RNCNvNtNtNtCs1lk7uXtNODC_4bake5cache5local5tests17create_dummy_file0B9_
FN:198,_RNCNvNtNtNtCs1lk7uXtNODC_4bake5cache5local5testss_16test_put_and_get0B9_
FN:253,_RNCNvNtNtNtCs1lk7uXtNODC_4bake5cache5local5testss_22test_put_existing_file0B9_
FN:163,_RNCNvNtNtNtCs1lk7uXtNODC_4bake5cache5local5testss_28test_from_config_custom_path0B9_
FN:139,_RNCNvNtNtNtCs1lk7uXtNODC_4bake5cache5local5testss_29test_from_config_default_path0B9_
FN:232,_RNCNvNtNtNtCs1lk7uXtNODC_4bake5cache5local5testss_40test_put_creates_cache_dir_if_not_exists0B9_
FN:28,_RNCNCNvXs0_NtNtCs1lk7uXtNODC_4bake5cache5localNtB9_18LocalCacheStrategyNtBb_13CacheStrategy3get00Bd_
FN:71,_RNCNvXs0_NtNtCs1lk7uXtNODC_4bake5cache5localNtB7_18LocalCacheStrategyNtB9_13CacheStrategy11from_config0Bb_
FN:21,_RNCNvXs0_NtNtCs1lk7uXtNODC_4bake5cache5localNtB7_18LocalCacheStrategyNtB9_13CacheStrategy3get0Bb_
FN:36,_RNCNvXs0_NtNtCs1lk7uXtNODC_4bake5cache5localNtB7_18LocalCacheStrategyNtB9_13CacheStrategy3put0Bb_
FN:71,_RNvXs0_NtNtCs1lk7uXtNODC_4bake5cache5localNtB5_18LocalCacheStrategyNtB7_13CacheStrategy11from_config
FN:21,_RNvXs0_NtNtCs1lk7uXtNODC_4bake5cache5localNtB5_18LocalCacheStrategyNtB7_13CacheStrategy3get
FN:36,_RNvXs0_NtNtCs1lk7uXtNODC_4bake5cache5localNtB5_18LocalCacheStrategyNtB7_13CacheStrategy3put
FN:132,_RNvNtNtNtCs1lk7uXtNODC_4bake5cache5local5tests17create_dummy_file
FN:116,_RNvNtNtNtCs1lk7uXtNODC_4bake5cache5local5tests27create_default_test_project
FN:97,_RNvNtNtNtCs1lk7uXtNODC_4bake5cache5local5tests36create_test_project_with_tool_config
FN:198,_RNvNtNtNtCs1lk7uXtNODC_4bake5cache5local5testss_16test_put_and_get
FN:253,_RNvNtNtNtCs1lk7uXtNODC_4bake5cache5local5testss_22test_put_existing_file
FN:163,_RNvNtNtNtCs1lk7uXtNODC_4bake5cache5local5testss_28test_from_config_custom_path
FN:139,_RNvNtNtNtCs1lk7uXtNODC_4bake5cache5local5testss_29test_from_config_default_path
FN:232,_RNvNtNtNtCs1lk7uXtNODC_4bake5cache5local5testss_40test_put_creates_cache_dir_if_not_exists
FNDA:5,_RNvXs0_NtNtCs4EkGjsAKdp2_4bake5cache5localNtB5_18LocalCacheStrategyNtB7_13CacheStrategy11from_config
FNDA:0,_RNvXs0_NtNtCs4EkGjsAKdp2_4bake5cache5localNtB5_18LocalCacheStrategyNtB7_13CacheStrategy3get
FNDA:0,_RNvXs0_NtNtCs4EkGjsAKdp2_4bake5cache5localNtB5_18LocalCacheStrategyNtB7_13CacheStrategy3put
FNDA:0,_RNCNCNvXs0_NtNtCs4EkGjsAKdp2_4bake5cache5localNtB9_18LocalCacheStrategyNtBb_13CacheStrategy3get00Bd_
FNDA:5,_RNCNvXs0_NtNtCs4EkGjsAKdp2_4bake5cache5localNtB7_18LocalCacheStrategyNtB9_13CacheStrategy11from_config0Bb_
FNDA:0,_RNCNvXs0_NtNtCs4EkGjsAKdp2_4bake5cache5localNtB7_18LocalCacheStrategyNtB9_13CacheStrategy3get0Bb_
FNDA:0,_RNCNvXs0_NtNtCs4EkGjsAKdp2_4bake5cache5localNtB7_18LocalCacheStrategyNtB9_13CacheStrategy3put0Bb_
FNDA:3,_RNCNvNtNtNtCs1lk7uXtNODC_4bake5cache5local5tests17create_dummy_file0B9_
FNDA:1,_RNCNvNtNtNtCs1lk7uXtNODC_4bake5cache5local5testss_16test_put_and_get0B9_
FNDA:1,_RNCNvNtNtNtCs1lk7uXtNODC_4bake5cache5local5testss_22test_put_existing_file0B9_
FNDA:1,_RNCNvNtNtNtCs1lk7uXtNODC_4bake5cache5local5testss_28test_from_config_custom_path0B9_
FNDA:1,_RNCNvNtNtNtCs1lk7uXtNODC_4bake5cache5local5testss_29test_from_config_default_path0B9_
FNDA:1,_RNCNvNtNtNtCs1lk7uXtNODC_4bake5cache5local5testss_40test_put_creates_cache_dir_if_not_exists0B9_
FNDA:1,_RNCNCNvXs0_NtNtCs1lk7uXtNODC_4bake5cache5localNtB9_18LocalCacheStrategyNtBb_13CacheStrategy3get00Bd_
FNDA:4,_RNCNvXs0_NtNtCs1lk7uXtNODC_4bake5cache5localNtB7_18LocalCacheStrategyNtB9_13CacheStrategy11from_config0Bb_
FNDA:2,_RNCNvXs0_NtNtCs1lk7uXtNODC_4bake5cache5localNtB7_18LocalCacheStrategyNtB9_13CacheStrategy3get0Bb_
FNDA:4,_RNCNvXs0_NtNtCs1lk7uXtNODC_4bake5cache5localNtB7_18LocalCacheStrategyNtB9_13CacheStrategy3put0Bb_
FNDA:4,_RNvXs0_NtNtCs1lk7uXtNODC_4bake5cache5localNtB5_18LocalCacheStrategyNtB7_13CacheStrategy11from_config
FNDA:2,_RNvXs0_NtNtCs1lk7uXtNODC_4bake5cache5localNtB5_18LocalCacheStrategyNtB7_13CacheStrategy3get
FNDA:4,_RNvXs0_NtNtCs1lk7uXtNODC_4bake5cache5localNtB5_18LocalCacheStrategyNtB7_13CacheStrategy3put
FNDA:3,_RNvNtNtNtCs1lk7uXtNODC_4bake5cache5local5tests17create_dummy_file
FNDA:1,_RNvNtNtNtCs1lk7uXtNODC_4bake5cache5local5tests27create_default_test_project
FNDA:2,_RNvNtNtNtCs1lk7uXtNODC_4bake5cache5local5tests36create_test_project_with_tool_config
FNDA:1,_RNvNtNtNtCs1lk7uXtNODC_4bake5cache5local5testss_16test_put_and_get
FNDA:1,_RNvNtNtNtCs1lk7uXtNODC_4bake5cache5local5testss_22test_put_existing_file
FNDA:1,_RNvNtNtNtCs1lk7uXtNODC_4bake5cache5local5testss_28test_from_config_custom_path
FNDA:1,_RNvNtNtNtCs1lk7uXtNODC_4bake5cache5local5testss_29test_from_config_default_path
FNDA:1,_RNvNtNtNtCs1lk7uXtNODC_4bake5cache5local5testss_40test_put_creates_cache_dir_if_not_exists
FNF:18
FNH:18
DA:21,4
DA:22,2
DA:23,2
DA:24,2
DA:25,2
DA:26,1
DA:27,1
DA:28,1
DA:29,1
DA:31,1
DA:32,1
DA:33,1
DA:34,1
DA:35,4
DA:36,8
DA:37,4
DA:39,4
DA:40,1
DA:41,1
DA:42,0
DA:43,0
DA:44,0
DA:45,0
DA:46,0
DA:47,0
DA:50,3
DA:53,4
DA:54,4
DA:55,1
DA:56,1
DA:57,3
DA:60,3
DA:61,0
DA:62,0
DA:63,0
DA:64,0
DA:65,0
DA:67,3
DA:69,8
DA:71,18
DA:72,9
DA:73,9
DA:74,9
DA:75,9
DA:76,9
DA:77,9
DA:78,9
DA:79,9
DA:80,9
DA:81,9
DA:82,18
DA:97,2
DA:98,2
DA:99,2
DA:101,2
DA:102,2
DA:103,2
DA:104,2
DA:105,2
DA:106,2
DA:107,2
DA:108,2
DA:109,2
DA:110,2
DA:111,2
DA:112,2
DA:113,2
DA:116,1
DA:117,1
DA:118,1
DA:119,1
DA:120,1
DA:121,1
DA:122,1
DA:123,1
DA:124,1
DA:125,1
DA:126,1
DA:127,1
DA:128,1
DA:129,1
DA:132,3
DA:133,3
DA:134,3
DA:135,3
DA:136,3
DA:139,1
DA:140,1
DA:141,1
DA:142,1
DA:160,1
DA:163,1
DA:164,1
DA:165,1
DA:167,1
DA:168,1
DA:169,1
DA:170,1
DA:171,1
DA:172,1
DA:173,1
DA:174,1
DA:175,1
DA:176,1
DA:177,1
DA:178,1
DA:180,1
DA:181,1
DA:195,1
DA:198,1
DA:200,1
DA:201,1
DA:202,1
DA:203,1
DA:205,1
DA:206,1
DA:207,1
DA:210,1
DA:211,1
DA:212,1
DA:215,1
DA:216,1
DA:217,1
DA:218,1
DA:219,1
DA:220,1
DA:221,1
DA:222,1
DA:223,1
DA:224,1
DA:225,1
DA:226,1
DA:227,1
DA:228,1
DA:229,1
DA:232,1
DA:233,1
DA:234,1
DA:236,1
DA:237,1
DA:238,1
DA:240,1
DA:242,1
DA:243,1
DA:244,1
DA:246,1
DA:247,1
DA:248,1
DA:249,1
DA:250,1
DA:253,1
DA:254,1
DA:255,1
DA:256,1
DA:257,1
DA:259,1
DA:260,1
DA:261,1
DA:264,1
DA:265,1
DA:266,1
DA:269,1
DA:270,1
DA:271,1
BRF:0
BRH:0
LF:184
LH:171
end_of_record
SF:/Users/theoribeiro/Dev/tools/bake/src/cache/mod.rs
FN:202,_RNCNCNvMNtCs4EkGjsAKdp2_4bake5cacheNtB6_5Cache3put00Cs6G5DyER1L5a_4bake
FN:53,_RNCNvMNtCs4EkGjsAKdp2_4bake5cacheNtB4_5Cache3get0Cs6G5DyER1L5a_4bake
FN:180,_RNCNvMNtCs4EkGjsAKdp2_4bake5cacheNtB4_5Cache3put0Cs6G5DyER1L5a_4bake
FN:202,_RNCNCNvMNtCs4EkGjsAKdp2_4bake5cacheNtB6_5Cache3put00B8_
FN:53,_RNCNvMNtCs4EkGjsAKdp2_4bake5cacheNtB4_5Cache3get0B6_
FN:180,_RNCNvMNtCs4EkGjsAKdp2_4bake5cacheNtB4_5Cache3put0B6_
FN:147,_RNCNCNvMNtCs4EkGjsAKdp2_4bake5cacheNtB6_5Cache20safe_extract_archives0_00B8_
FN:133,_RNCNvMNtCs4EkGjsAKdp2_4bake5cacheNtB4_5Cache20safe_extract_archive0B6_
FN:142,_RNCNvMNtCs4EkGjsAKdp2_4bake5cacheNtB4_5Cache20safe_extract_archives0_0B6_
FN:138,_RNCNvMNtCs4EkGjsAKdp2_4bake5cacheNtB4_5Cache20safe_extract_archives_0B6_
FN:91,_RNvMNtCs4EkGjsAKdp2_4bake5cacheNtB2_5Cache20safe_extract_archive
FN:53,_RNvMNtCs4EkGjsAKdp2_4bake5cacheNtB2_5Cache3get
FN:180,_RNvMNtCs4EkGjsAKdp2_4bake5cacheNtB2_5Cache3put
FN:147,_RNCNCNvMNtCs1lk7uXtNODC_4bake5cacheNtB6_5Cache20safe_extract_archives0_00B8_
FN:202,_RNCNCNvMNtCs1lk7uXtNODC_4bake5cacheNtB6_5Cache3put00B8_
FN:133,_RNCNvMNtCs1lk7uXtNODC_4bake5cacheNtB4_5Cache20safe_extract_archive0B6_
FN:142,_RNCNvMNtCs1lk7uXtNODC_4bake5cacheNtB4_5Cache20safe_extract_archives0_0B6_
FN:138,_RNCNvMNtCs1lk7uXtNODC_4bake5cacheNtB4_5Cache20safe_extract_archives_0B6_
FN:53,_RNCNvMNtCs1lk7uXtNODC_4bake5cacheNtB4_5Cache3get0B6_
FN:180,_RNCNvMNtCs1lk7uXtNODC_4bake5cacheNtB4_5Cache3put0B6_
FN:91,_RNvMNtCs1lk7uXtNODC_4bake5cacheNtB2_5Cache20safe_extract_archive
FN:53,_RNvMNtCs1lk7uXtNODC_4bake5cacheNtB2_5Cache3get
FN:180,_RNvMNtCs1lk7uXtNODC_4bake5cacheNtB2_5Cache3put
FN:355,_RNvMNtNtCs1lk7uXtNODC_4bake5cache4testNtB2_17TestCacheStrategy22get_dummy_archive_path
FN:343,_RNvMNtNtCs1lk7uXtNODC_4bake5cache4testNtB2_17TestCacheStrategy3new
FN:426,_RNvNtNtCs1lk7uXtNODC_4bake5cache4test11build_cache
FN:311,_RNvNtNtCs1lk7uXtNODC_4bake5cache4test19create_test_project
FN:520,_RNvNtNtCs1lk7uXtNODC_4bake5cache4tests_19test_cache_creation
FN:421,_RNvXs1_NtNtCs1lk7uXtNODC_4bake5cache4testNtB5_17TestCacheStrategyNtB7_13CacheStrategy11from_config
FN:369,_RNvXs1_NtNtCs1lk7uXtNODC_4bake5cache4testNtB5_17TestCacheStrategyNtB7_13CacheStrategy3get
FN:409,_RNvXs1_NtNtCs1lk7uXtNODC_4bake5cache4testNtB5_17TestCacheStrategyNtB7_13CacheStrategy3put
FN:433,_RNCNCNCNvNtNtCs1lk7uXtNODC_4bake5cache4test11build_cache000Bb_
FN:430,_RNCNCNvNtNtCs1lk7uXtNODC_4bake5cache4test11build_cache00B9_
FN:426,_RNCNvNtNtCs1lk7uXtNODC_4bake5cache4test11build_cache0B7_
FN:520,_RNCNvNtNtCs1lk7uXtNODC_4bake5cache4tests_19test_cache_creation0B7_
FN:421,_RNCNvXs1_NtNtCs1lk7uXtNODC_4bake5cache4testNtB7_17TestCacheStrategyNtB9_13CacheStrategy11from_config0Bb_
FN:369,_RNCNvXs1_NtNtCs1lk7uXtNODC_4bake5cache4testNtB7_17TestCacheStrategyNtB9_13CacheStrategy3get0Bb_
FN:409,_RNCNvXs1_NtNtCs1lk7uXtNODC_4bake5cache4testNtB7_17TestCacheStrategyNtB9_13CacheStrategy3put0Bb_
FN:202,_RNCNCNvMNtCs4EkGjsAKdp2_4bake5cacheNtB6_5Cache3put00Cs7jFFKzxOOLS_11baker_tests
FN:53,_RNCNvMNtCs4EkGjsAKdp2_4bake5cacheNtB4_5Cache3get0Cs7jFFKzxOOLS_11baker_tests
FN:180,_RNCNvMNtCs4EkGjsAKdp2_4bake5cacheNtB4_5Cache3put0Cs7jFFKzxOOLS_11baker_tests
FNDA:0,_RNCNCNvMNtCs4EkGjsAKdp2_4bake5cacheNtB6_5Cache3put00Cs6G5DyER1L5a_4bake
FNDA:0,_RNCNvMNtCs4EkGjsAKdp2_4bake5cacheNtB4_5Cache3get0Cs6G5DyER1L5a_4bake
FNDA:0,_RNCNvMNtCs4EkGjsAKdp2_4bake5cacheNtB4_5Cache3put0Cs6G5DyER1L5a_4bake
FNDA:0,_RNCNCNvMNtCs4EkGjsAKdp2_4bake5cacheNtB6_5Cache3put00B8_
FNDA:0,_RNCNvMNtCs4EkGjsAKdp2_4bake5cacheNtB4_5Cache3get0B6_
FNDA:0,_RNCNvMNtCs4EkGjsAKdp2_4bake5cacheNtB4_5Cache3put0B6_
FNDA:0,_RNCNCNvMNtCs4EkGjsAKdp2_4bake5cacheNtB6_5Cache20safe_extract_archives0_00B8_
FNDA:0,_RNCNvMNtCs4EkGjsAKdp2_4bake5cacheNtB4_5Cache20safe_extract_archive0B6_
FNDA:0,_RNCNvMNtCs4EkGjsAKdp2_4bake5cacheNtB4_5Cache20safe_extract_archives0_0B6_
FNDA:0,_RNCNvMNtCs4EkGjsAKdp2_4bake5cacheNtB4_5Cache20safe_extract_archives_0B6_
FNDA:0,_RNvMNtCs4EkGjsAKdp2_4bake5cacheNtB2_5Cache20safe_extract_archive
FNDA:0,_RNvMNtCs4EkGjsAKdp2_4bake5cacheNtB2_5Cache3get
FNDA:0,_RNvMNtCs4EkGjsAKdp2_4bake5cacheNtB2_5Cache3put
FNDA:0,_RNCNCNvMNtCs1lk7uXtNODC_4bake5cacheNtB6_5Cache20safe_extract_archives0_00B8_
FNDA:0,_RNCNCNvMNtCs1lk7uXtNODC_4bake5cacheNtB6_5Cache3put00B8_
FNDA:0,_RNCNvMNtCs1lk7uXtNODC_4bake5cacheNtB4_5Cache20safe_extract_archive0B6_
FNDA:0,_RNCNvMNtCs1lk7uXtNODC_4bake5cacheNtB4_5Cache20safe_extract_archives0_0B6_
FNDA:0,_RNCNvMNtCs1lk7uXtNODC_4bake5cacheNtB4_5Cache20safe_extract_archives_0B6_
FNDA:0,_RNCNvMNtCs1lk7uXtNODC_4bake5cacheNtB4_5Cache3get0B6_
FNDA:0,_RNCNvMNtCs1lk7uXtNODC_4bake5cacheNtB4_5Cache3put0B6_
FNDA:0,_RNvMNtCs1lk7uXtNODC_4bake5cacheNtB2_5Cache20safe_extract_archive
FNDA:0,_RNvMNtCs1lk7uXtNODC_4bake5cacheNtB2_5Cache3get
FNDA:0,_RNvMNtCs1lk7uXtNODC_4bake5cacheNtB2_5Cache3put
FNDA:0,_RNvMNtNtCs1lk7uXtNODC_4bake5cache4testNtB2_17TestCacheStrategy22get_dummy_archive_path
FNDA:1,_RNvMNtNtCs1lk7uXtNODC_4bake5cache4testNtB2_17TestCacheStrategy3new
FNDA:1,_RNvNtNtCs1lk7uXtNODC_4bake5cache4test11build_cache
FNDA:1,_RNvNtNtCs1lk7uXtNODC_4bake5cache4test19create_test_project
FNDA:1,_RNvNtNtCs1lk7uXtNODC_4bake5cache4tests_19test_cache_creation
FNDA:1,_RNvXs1_NtNtCs1lk7uXtNODC_4bake5cache4testNtB5_17TestCacheStrategyNtB7_13CacheStrategy11from_config
FNDA:0,_RNvXs1_NtNtCs1lk7uXtNODC_4bake5cache4testNtB5_17TestCacheStrategyNtB7_13CacheStrategy3get
FNDA:0,_RNvXs1_NtNtCs1lk7uXtNODC_4bake5cache4testNtB5_17TestCacheStrategyNtB7_13CacheStrategy3put
FNDA:0,_RNCNCNCNvNtNtCs1lk7uXtNODC_4bake5cache4test11build_cache000Bb_
FNDA:0,_RNCNCNvNtNtCs1lk7uXtNODC_4bake5cache4test11build_cache00B9_
FNDA:1,_RNCNvNtNtCs1lk7uXtNODC_4bake5cache4test11build_cache0B7_
FNDA:1,_RNCNvNtNtCs1lk7uXtNODC_4bake5cache4tests_19test_cache_creation0B7_
FNDA:1,_RNCNvXs1_NtNtCs1lk7uXtNODC_4bake5cache4testNtB7_17TestCacheStrategyNtB9_13CacheStrategy11from_config0Bb_
FNDA:0,_RNCNvXs1_NtNtCs1lk7uXtNODC_4bake5cache4testNtB7_17TestCacheStrategyNtB9_13CacheStrategy3get0Bb_
FNDA:0,_RNCNvXs1_NtNtCs1lk7uXtNODC_4bake5cache4testNtB7_17TestCacheStrategyNtB9_13CacheStrategy3put0Bb_
FNDA:0,_RNCNCNvMNtCs4EkGjsAKdp2_4bake5cacheNtB6_5Cache3put00Cs7jFFKzxOOLS_11baker_tests
FNDA:0,_RNCNvMNtCs4EkGjsAKdp2_4bake5cacheNtB4_5Cache3get0Cs7jFFKzxOOLS_11baker_tests
FNDA:0,_RNCNvMNtCs4EkGjsAKdp2_4bake5cacheNtB4_5Cache3put0Cs7jFFKzxOOLS_11baker_tests
FNF:22
FNH:7
DA:53,0
DA:54,0
DA:55,0
DA:56,0
DA:57,0
DA:58,0
DA:59,0
DA:60,0
DA:62,0
DA:65,0
DA:66,0
DA:67,0
DA:68,0
DA:71,0
DA:72,0
DA:74,0
DA:75,0
DA:77,0
DA:80,0
DA:81,0
DA:82,0
DA:83,0
DA:84,0
DA:87,0
DA:88,0
DA:91,0
DA:92,0
DA:93,0
DA:94,0
DA:95,0
DA:96,0
DA:99,0
DA:100,0
DA:101,0
DA:104,0
DA:105,0
DA:106,0
DA:107,0
DA:108,0
DA:109,0
DA:110,0
DA:111,0
DA:114,0
DA:115,0
DA:116,0
DA:117,0
DA:118,0
DA:119,0
DA:120,0
DA:121,0
DA:122,0
DA:126,0
DA:129,0
DA:130,0
DA:131,0
DA:132,0
DA:133,0
DA:135,0
DA:136,0
DA:137,0
DA:138,0
DA:141,0
DA:142,0
DA:144,0
DA:145,0
DA:146,0
DA:147,0
DA:148,0
DA:149,0
DA:151,0
DA:157,0
DA:159,0
DA:160,0
DA:161,0
DA:162,0
DA:163,0
DA:164,0
DA:165,0
DA:166,0
DA:167,0
DA:168,0
DA:170,0
DA:173,0
DA:176,0
DA:177,0
DA:180,0
DA:182,0
DA:183,0
DA:184,0
DA:185,0
DA:186,0
DA:187,0
DA:189,0
DA:190,0
DA:192,0
DA:193,0
DA:194,0
DA:195,0
DA:200,0
DA:202,0
DA:203,0
DA:204,0
DA:207,0
DA:208,0
DA:210,0
DA:211,0
DA:212,0
DA:213,0
DA:214,0
DA:215,0
DA:217,0
DA:218,0
DA:219,0
DA:223,0
DA:224,0
DA:226,0
DA:227,0
DA:228,0
DA:229,0
DA:230,0
DA:234,0
DA:235,0
DA:237,0
DA:238,0
DA:239,0
DA:243,0
DA:244,0
DA:245,0
DA:246,0
DA:247,0
DA:248,0
DA:249,0
DA:250,0
DA:252,0
DA:255,0
DA:256,0
DA:257,0
DA:258,0
DA:259,0
DA:260,0
DA:261,0
DA:262,0
DA:263,0
DA:266,0
DA:267,0
DA:268,0
DA:269,0
DA:270,0
DA:271,0
DA:272,0
DA:274,0
DA:275,0
DA:276,0
DA:277,0
DA:278,0
DA:279,0
DA:283,0
DA:284,0
DA:285,0
DA:288,0
DA:289,0
DA:311,1
DA:316,1
DA:317,1
DA:318,1
DA:319,1
DA:320,1
DA:321,1
DA:322,1
DA:323,1
DA:324,1
DA:325,1
DA:326,1
DA:327,1
DA:343,1
DA:344,1
DA:345,1
DA:346,1
DA:347,1
DA:348,1
DA:349,1
DA:350,1
DA:351,1
DA:352,1
DA:355,0
DA:357,0
DA:358,0
DA:359,0
DA:360,0
DA:361,0
DA:362,0
DA:363,0
DA:364,0
DA:369,0
DA:370,0
DA:371,0
DA:372,0
DA:373,0
DA:374,0
DA:375,0
DA:376,0
DA:377,0
DA:378,0
DA:379,0
DA:380,0
DA:381,0
DA:382,0
DA:383,0
DA:387,0
DA:388,0
DA:389,0
DA:391,0
DA:392,0
DA:394,0
DA:395,0
DA:396,0
DA:398,0
DA:399,0
DA:400,0
DA:401,0
DA:402,0
DA:403,0
DA:404,0
DA:405,0
DA:406,0
DA:407,0
DA:409,0
DA:410,0
DA:411,0
DA:412,0
DA:413,0
DA:414,0
DA:415,0
DA:416,0
DA:417,0
DA:418,0
DA:419,0
DA:421,2
DA:422,1
DA:423,2
DA:426,1
DA:427,1
DA:428,1
DA:429,1
DA:430,1
DA:431,0
DA:432,0
DA:433,0
DA:434,0
DA:435,1
DA:437,1
DA:438,1
DA:439,1
DA:440,1
DA:441,1
DA:442,1
DA:443,1
DA:444,1
DA:520,1
DA:521,1
DA:522,1
DA:523,1
DA:524,1
DA:525,1
BRF:0
BRH:0
LF:277
LH:49
end_of_record
SF:/Users/theoribeiro/Dev/tools/bake/src/cache/s3.rs
FN:97,_RNCNvXs0_NtNtCs4EkGjsAKdp2_4bake5cache2s3NtB7_15S3CacheStrategyNtB9_13CacheStrategy11from_config0Bb_
FN:25,_RNCNvXs0_NtNtCs4EkGjsAKdp2_4bake5cache2s3NtB7_15S3CacheStrategyNtB9_13CacheStrategy3get0Bb_
FN:77,_RNCNvXs0_NtNtCs4EkGjsAKdp2_4bake5cache2s3NtB7_15S3CacheStrategyNtB9_13CacheStrategy3put0Bb_
FN:97,_RNvXs0_NtNtCs4EkGjsAKdp2_4bake5cache2s3NtB5_15S3CacheStrategyNtB7_13CacheStrategy11from_config
FN:25,_RNvXs0_NtNtCs4EkGjsAKdp2_4bake5cache2s3NtB5_15S3CacheStrategyNtB7_13CacheStrategy3get
FN:77,_RNvXs0_NtNtCs4EkGjsAKdp2_4bake5cache2s3NtB5_15S3CacheStrategyNtB7_13CacheStrategy3put
FN:97,_RNCNvXs0_NtNtCs1lk7uXtNODC_4bake5cache2s3NtB7_15S3CacheStrategyNtB9_13CacheStrategy11from_config0Bb_
FN:25,_RNCNvXs0_NtNtCs1lk7uXtNODC_4bake5cache2s3NtB7_15S3CacheStrategyNtB9_13CacheStrategy3get0Bb_
FN:77,_RNCNvXs0_NtNtCs1lk7uXtNODC_4bake5cache2s3NtB7_15S3CacheStrategyNtB9_13CacheStrategy3put0Bb_
FN:97,_RNvXs0_NtNtCs1lk7uXtNODC_4bake5cache2s3NtB5_15S3CacheStrategyNtB7_13CacheStrategy11from_config
FN:25,_RNvXs0_NtNtCs1lk7uXtNODC_4bake5cache2s3NtB5_15S3CacheStrategyNtB7_13CacheStrategy3get
FN:77,_RNvXs0_NtNtCs1lk7uXtNODC_4bake5cache2s3NtB5_15S3CacheStrategyNtB7_13CacheStrategy3put
FNDA:1,_RNCNvXs0_NtNtCs4EkGjsAKdp2_4bake5cache2s3NtB7_15S3CacheStrategyNtB9_13CacheStrategy11from_config0Bb_
FNDA:0,_RNCNvXs0_NtNtCs4EkGjsAKdp2_4bake5cache2s3NtB7_15S3CacheStrategyNtB9_13CacheStrategy3get0Bb_
FNDA:0,_RNCNvXs0_NtNtCs4EkGjsAKdp2_4bake5cache2s3NtB7_15S3CacheStrategyNtB9_13CacheStrategy3put0Bb_
FNDA:1,_RNvXs0_NtNtCs4EkGjsAKdp2_4bake5cache2s3NtB5_15S3CacheStrategyNtB7_13CacheStrategy11from_config
FNDA:0,_RNvXs0_NtNtCs4EkGjsAKdp2_4bake5cache2s3NtB5_15S3CacheStrategyNtB7_13CacheStrategy3get
FNDA:0,_RNvXs0_NtNtCs4EkGjsAKdp2_4bake5cache2s3NtB5_15S3CacheStrategyNtB7_13CacheStrategy3put
FNDA:0,_RNCNvXs0_NtNtCs1lk7uXtNODC_4bake5cache2s3NtB7_15S3CacheStrategyNtB9_13CacheStrategy11from_config0Bb_
FNDA:0,_RNCNvXs0_NtNtCs1lk7uXtNODC_4bake5cache2s3NtB7_15S3CacheStrategyNtB9_13CacheStrategy3get0Bb_
FNDA:0,_RNCNvXs0_NtNtCs1lk7uXtNODC_4bake5cache2s3NtB7_15S3CacheStrategyNtB9_13CacheStrategy3put0Bb_
FNDA:0,_RNvXs0_NtNtCs1lk7uXtNODC_4bake5cache2s3NtB5_15S3CacheStrategyNtB7_13CacheStrategy11from_config
FNDA:0,_RNvXs0_NtNtCs1lk7uXtNODC_4bake5cache2s3NtB5_15S3CacheStrategyNtB7_13CacheStrategy3get
FNDA:0,_RNvXs0_NtNtCs1lk7uXtNODC_4bake5cache2s3NtB5_15S3CacheStrategyNtB7_13CacheStrategy3put
FNF:3
FNH:1
DA:25,0
DA:26,0
DA:28,0
DA:29,0
DA:30,0
DA:31,0
DA:32,0
DA:33,0
DA:37,0
DA:38,0
DA:39,0
DA:40,0
DA:41,0
DA:42,0
DA:43,0
DA:45,0
DA:46,0
DA:47,0
DA:48,0
DA:49,0
DA:50,0
DA:51,0
DA:54,0
DA:55,0
DA:56,0
DA:57,0
DA:59,0
DA:60,0
DA:64,0
DA:65,0
DA:66,0
DA:67,0
DA:69,0
DA:71,0
DA:72,0
DA:73,0
DA:76,0
DA:77,0
DA:78,0
DA:79,0
DA:81,0
DA:82,0
DA:83,0
DA:84,0
DA:85,0
DA:86,0
DA:87,0
DA:88,0
DA:90,0
DA:91,0
DA:92,0
DA:93,0
DA:94,0
DA:96,0
DA:97,2
DA:98,1
DA:99,1
DA:100,1
DA:101,1
DA:102,1
DA:103,1
DA:104,1
DA:105,1
DA:106,1
DA:107,1
DA:108,1
DA:109,1
DA:110,1
DA:111,1
DA:112,0
DA:113,0
DA:115,0
DA:116,2
BRF:0
BRH:0
LF:73
LH:16
end_of_record
SF:/Users/theoribeiro/Dev/tools/bake/src/execution_plan.rs
FN:16,_RNCNvNtCs4EkGjsAKdp2_4bake14execution_plan27display_full_execution_plan0B5_
FN:19,_RNCNvNtCs4EkGjsAKdp2_4bake14execution_plan27display_full_execution_plans_0B5_
FN:6,_RNvNtCs4EkGjsAKdp2_4bake14execution_plan27display_full_execution_plan
FN:38,_RNvNtCs4EkGjsAKdp2_4bake14execution_plan28display_tree_execution_order
FN:6,_RNvNtCs1lk7uXtNODC_4bake14execution_plan27display_full_execution_plan
FN:38,_RNvNtCs1lk7uXtNODC_4bake14execution_plan28display_tree_execution_order
FN:77,_RNvNtNtCs1lk7uXtNODC_4bake14execution_plan5tests18create_test_recipe
FN:163,_RNvNtNtCs1lk7uXtNODC_4bake14execution_plan5testss_27test_complex_execution_plan
FN:135,_RNvNtNtCs1lk7uXtNODC_4bake14execution_plan5testss_28test_tree_display_empty_plan
FN:110,_RNvNtNtCs1lk7uXtNODC_4bake14execution_plan5testss_29test_display_multi_level_plan
FN:124,_RNvNtNtCs1lk7uXtNODC_4bake14execution_plan5testss_29test_display_parallel_recipes
FN:142,_RNvNtNtCs1lk7uXtNODC_4bake14execution_plan5testss_30test_execution_plan_statistics
FN:103,_RNvNtNtCs1lk7uXtNODC_4bake14execution_plan5testss_31test_display_single_recipe_plan
FN:96,_RNvNtNtCs1lk7uXtNODC_4bake14execution_plan5testss_33test_display_empty_execution_plan
FN:189,_RNCNvNtNtCs1lk7uXtNODC_4bake14execution_plan5testss_27test_complex_execution_plan0B7_
FN:192,_RNCNvNtNtCs1lk7uXtNODC_4bake14execution_plan5testss_27test_complex_execution_plans_0B7_
FN:151,_RNCNvNtNtCs1lk7uXtNODC_4bake14execution_plan5testss_30test_execution_plan_statistics0B7_
FN:155,_RNCNvNtNtCs1lk7uXtNODC_4bake14execution_plan5testss_30test_execution_plan_statisticss_0B7_
FN:16,_RNCNvNtCs1lk7uXtNODC_4bake14execution_plan27display_full_execution_plan0B5_
FN:19,_RNCNvNtCs1lk7uXtNODC_4bake14execution_plan27display_full_execution_plans_0B5_
FNDA:0,_RNCNvNtCs4EkGjsAKdp2_4bake14execution_plan27display_full_execution_plan0B5_
FNDA:0,_RNCNvNtCs4EkGjsAKdp2_4bake14execution_plan27display_full_execution_plans_0B5_
FNDA:0,_RNvNtCs4EkGjsAKdp2_4bake14execution_plan27display_full_execution_plan
FNDA:0,_RNvNtCs4EkGjsAKdp2_4bake14execution_plan28display_tree_execution_order
FNDA:5,_RNvNtCs1lk7uXtNODC_4bake14execution_plan27display_full_execution_plan
FNDA:5,_RNvNtCs1lk7uXtNODC_4bake14execution_plan28display_tree_execution_order
FNDA:20,_RNvNtNtCs1lk7uXtNODC_4bake14execution_plan5tests18create_test_recipe
FNDA:1,_RNvNtNtCs1lk7uXtNODC_4bake14execution_plan5testss_27test_complex_execution_plan
FNDA:1,_RNvNtNtCs1lk7uXtNODC_4bake14execution_plan5testss_28test_tree_display_empty_plan
FNDA:1,_RNvNtNtCs1lk7uXtNODC_4bake14execution_plan5testss_29test_display_multi_level_plan
FNDA:1,_RNvNtNtCs1lk7uXtNODC_4bake14execution_plan5testss_29test_display_parallel_recipes
FNDA:1,_RNvNtNtCs1lk7uXtNODC_4bake14execution_plan5testss_30test_execution_plan_statistics
FNDA:1,_RNvNtNtCs1lk7uXtNODC_4bake14execution_plan5testss_31test_display_single_recipe_plan
FNDA:1,_RNvNtNtCs1lk7uXtNODC_4bake14execution_plan5testss_33test_display_empty_execution_plan
FNDA:4,_RNCNvNtNtCs1lk7uXtNODC_4bake14execution_plan5testss_27test_complex_execution_plan0B7_
FNDA:4,_RNCNvNtNtCs1lk7uXtNODC_4bake14execution_plan5testss_27test_complex_execution_plans_0B7_
FNDA:3,_RNCNvNtNtCs1lk7uXtNODC_4bake14execution_plan5testss_30test_execution_plan_statistics0B7_
FNDA:3,_RNCNvNtNtCs1lk7uXtNODC_4bake14execution_plan5testss_30test_execution_plan_statisticss_0B7_
FNDA:9,_RNCNvNtCs1lk7uXtNODC_4bake14execution_plan27display_full_execution_plan0B5_
FNDA:9,_RNCNvNtCs1lk7uXtNODC_4bake14execution_plan27display_full_execution_plans_0B5_
FNF:16
FNH:16
DA:6,5
DA:7,5
DA:8,1
DA:9,4
DA:12,4
DA:13,4
DA:16,9
DA:17,4
DA:18,4
DA:19,9
DA:20,4
DA:21,4
DA:23,4
DA:24,4
DA:25,4
DA:26,4
DA:29,4
DA:31,4
DA:32,4
DA:34,4
DA:35,5
DA:38,5
DA:39,5
DA:40,1
DA:41,4
DA:43,9
DA:45,9
DA:46,4
DA:48,5
DA:52,16
DA:53,16
DA:56,16
DA:57,9
DA:59,7
DA:62,16
DA:66,4
DA:67,5
DA:77,20
DA:78,20
DA:79,20
DA:80,20
DA:81,20
DA:82,20
DA:83,20
DA:84,20
DA:85,20
DA:86,20
DA:87,20
DA:88,20
DA:89,20
DA:90,20
DA:91,20
DA:92,20
DA:93,20
DA:96,1
DA:97,1
DA:98,1
DA:99,1
DA:100,1
DA:103,1
DA:104,1
DA:105,1
DA:106,1
DA:107,1
DA:110,1
DA:111,1
DA:112,1
DA:113,1
DA:114,1
DA:115,1
DA:117,1
DA:119,1
DA:120,1
DA:121,1
DA:124,1
DA:125,1
DA:126,1
DA:127,1
DA:128,1
DA:130,1
DA:131,1
DA:132,1
DA:135,1
DA:136,1
DA:137,1
DA:138,1
DA:139,1
DA:142,1
DA:143,1
DA:144,1
DA:145,1
DA:146,1
DA:147,1
DA:148,1
DA:151,3
DA:152,1
DA:155,3
DA:156,1
DA:159,1
DA:160,1
DA:163,1
DA:164,1
DA:166,1
DA:167,1
DA:168,1
DA:171,1
DA:172,1
DA:173,1
DA:174,1
DA:177,1
DA:178,1
DA:179,1
DA:182,1
DA:185,1
DA:186,1
DA:189,4
DA:190,1
DA:192,4
DA:193,1
DA:194,1
BRF:0
BRH:0
LF:126
LH:126
end_of_record
SF:/Users/theoribeiro/Dev/tools/bake/src/lib.rs
FN:337,_RNCNCNvCs4EkGjsAKdp2_4bake13handle_render00Cs6G5DyER1L5a_4bake
FN:391,_RNCNCNvCs4EkGjsAKdp2_4bake13handle_render0s1_0Cs6G5DyER1L5a_4bake
FN:423,_RNCNCNvCs4EkGjsAKdp2_4bake8run_bake00Cs6G5DyER1L5a_4bake
FN:447,_RNCNCNvCs4EkGjsAKdp2_4bake8run_bake0s0_0Cs6G5DyER1L5a_4bake
FN:499,_RNCNCNvCs4EkGjsAKdp2_4bake8run_bake0s1_0Cs6G5DyER1L5a_4bake
FN:417,_RNCNCNvCs4EkGjsAKdp2_4bake8run_bake0s2_0Cs6G5DyER1L5a_4bake
FN:444,_RNCNCNvCs4EkGjsAKdp2_4bake8run_bake0s_0Cs6G5DyER1L5a_4bake
FN:330,_RNCNvCs4EkGjsAKdp2_4bake13handle_render0Cs6G5DyER1L5a_4bake
FN:193,_RNCNvCs4EkGjsAKdp2_4bake18handle_self_update0Cs6G5DyER1L5a_4bake
FN:206,_RNCNvCs4EkGjsAKdp2_4bake20handle_check_updates0Cs6G5DyER1L5a_4bake
FN:226,_RNCNvCs4EkGjsAKdp2_4bake21handle_list_templates0Cs6G5DyER1L5a_4bake
FN:278,_RNCNvCs4EkGjsAKdp2_4bake25handle_validate_templates0Cs6G5DyER1L5a_4bake
FN:140,_RNCNvCs4EkGjsAKdp2_4bake26load_project_with_feedback0Cs6G5DyER1L5a_4bake
FN:511,_RNCNvCs4EkGjsAKdp2_4bake3run0Cs6G5DyER1L5a_4bake
FN:402,_RNCNvCs4EkGjsAKdp2_4bake8run_bake0Cs6G5DyER1L5a_4bake
FN:337,_RNCNCNvCs4EkGjsAKdp2_4bake13handle_render00B5_
FN:391,_RNCNCNvCs4EkGjsAKdp2_4bake13handle_render0s1_0B5_
FN:423,_RNCNCNvCs4EkGjsAKdp2_4bake8run_bake00B5_
FN:447,_RNCNCNvCs4EkGjsAKdp2_4bake8run_bake0s0_0B5_
FN:499,_RNCNCNvCs4EkGjsAKdp2_4bake8run_bake0s1_0B5_
FN:417,_RNCNCNvCs4EkGjsAKdp2_4bake8run_bake0s2_0B5_
FN:444,_RNCNCNvCs4EkGjsAKdp2_4bake8run_bake0s_0B5_
FN:330,_RNCNvCs4EkGjsAKdp2_4bake13handle_render0B3_
FN:193,_RNCNvCs4EkGjsAKdp2_4bake18handle_self_update0B3_
FN:206,_RNCNvCs4EkGjsAKdp2_4bake20handle_check_updates0B3_
FN:226,_RNCNvCs4EkGjsAKdp2_4bake21handle_list_templates0B3_
FN:278,_RNCNvCs4EkGjsAKdp2_4bake25handle_validate_templates0B3_
FN:140,_RNCNvCs4EkGjsAKdp2_4bake26load_project_with_feedback0B3_
FN:511,_RNCNvCs4EkGjsAKdp2_4bake3run0B3_
FN:402,_RNCNvCs4EkGjsAKdp2_4bake8run_bake0B3_
FN:133,_RNCNvCs4EkGjsAKdp2_4bake15parse_variables0B3_
FN:330,_RNvCs4EkGjsAKdp2_4bake13handle_render
FN:124,_RNvCs4EkGjsAKdp2_4bake13parse_key_val
FN:132,_RNvCs4EkGjsAKdp2_4bake15parse_variables
FN:185,_RNvCs4EkGjsAKdp2_4bake17resolve_bake_path
FN:193,_RNvCs4EkGjsAKdp2_4bake18handle_self_update
FN:206,_RNvCs4EkGjsAKdp2_4bake20handle_check_updates
FN:226,_RNvCs4EkGjsAKdp2_4bake21handle_list_templates
FN:278,_RNvCs4EkGjsAKdp2_4bake25handle_validate_templates
FN:136,_RNvCs4EkGjsAKdp2_4bake26load_project_with_feedback
FN:511,_RNvCs4EkGjsAKdp2_4bake3run
FN:402,_RNvCs4EkGjsAKdp2_4bake8run_bake
FN:337,_RNCNCNvCs1lk7uXtNODC_4bake13handle_render00B5_
FN:391,_RNCNCNvCs1lk7uXtNODC_4bake13handle_render0s1_0B5_
FN:330,_RNCNvCs1lk7uXtNODC_4bake13handle_render0B3_
FN:193,_RNCNvCs1lk7uXtNODC_4bake18handle_self_update0B3_
FN:206,_RNCNvCs1lk7uXtNODC_4bake20handle_check_updates0B3_
FN:511,_RNCNvCs1lk7uXtNODC_4bake3run0B3_
FN:330,_RNvCs1lk7uXtNODC_4bake13handle_render
FN:193,_RNvCs1lk7uXtNODC_4bake18handle_self_update
FN:206,_RNvCs1lk7uXtNODC_4bake20handle_check_updates
FN:511,_RNvCs1lk7uXtNODC_4bake3run
FN:765,_RNvNtCs1lk7uXtNODC_4bake5testss_14test_constants
FN:737,_RNvNtCs1lk7uXtNODC_4bake5testss_22test_args_struct_debug
FN:553,_RNvNtCs1lk7uXtNODC_4bake5testss_24test_parse_key_val_valid
FN:700,_RNvNtCs1lk7uXtNODC_4bake5testss_24test_run_bake_no_recipes
FN:584,_RNvNtCs1lk7uXtNODC_4bake5testss_26test_parse_variables_empty
FN:591,_RNvNtCs1lk7uXtNODC_4bake5testss_27test_parse_variables_single
FN:618,_RNvNtCs1lk7uXtNODC_4bake5testss_27test_resolve_bake_path_none
FN:599,_RNvNtCs1lk7uXtNODC_4bake5testss_29test_parse_variables_multiple
FN:565,_RNvNtCs1lk7uXtNODC_4bake5testss_30test_parse_key_val_empty_value
FN:611,_RNvNtCs1lk7uXtNODC_4bake5testss_32test_resolve_bake_path_with_path
FN:578,_RNvNtCs1lk7uXtNODC_4bake5testss_35test_parse_key_val_invalid_only_key
FN:571,_RNvNtCs1lk7uXtNODC_4bake5testss_36test_parse_key_val_invalid_no_equals
FN:626,_RNvNtCs1lk7uXtNODC_4bake5testss_39test_handle_list_templates_no_templates
FN:559,_RNvNtCs1lk7uXtNODC_4bake5testss_39test_parse_key_val_with_equals_in_value
FN:663,_RNvNtCs1lk7uXtNODC_4bake5testss_43test_handle_validate_templates_no_templates
FN:700,_RNCNvNtCs1lk7uXtNODC_4bake5testss_24test_run_bake_no_recipes0B5_
FN:626,_RNCNvNtCs1lk7uXtNODC_4bake5testss_39test_handle_list_templates_no_templates0B5_
FN:663,_RNCNvNtCs1lk7uXtNODC_4bake5testss_43test_handle_validate_templates_no_templates0B5_
FN:124,_RNvCs1lk7uXtNODC_4bake13parse_key_val
FN:132,_RNvCs1lk7uXtNODC_4bake15parse_variables
FN:185,_RNvCs1lk7uXtNODC_4bake17resolve_bake_path
FN:226,_RNvCs1lk7uXtNODC_4bake21handle_list_templates
FN:278,_RNvCs1lk7uXtNODC_4bake25handle_validate_templates
FN:136,_RNvCs1lk7uXtNODC_4bake26load_project_with_feedback
FN:402,_RNvCs1lk7uXtNODC_4bake8run_bake
FN:423,_RNCNCNvCs1lk7uXtNODC_4bake8run_bake00B5_
FN:447,_RNCNCNvCs1lk7uXtNODC_4bake8run_bake0s0_0B5_
FN:499,_RNCNCNvCs1lk7uXtNODC_4bake8run_bake0s1_0B5_
FN:417,_RNCNCNvCs1lk7uXtNODC_4bake8run_bake0s2_0B5_
FN:444,_RNCNCNvCs1lk7uXtNODC_4bake8run_bake0s_0B5_
FN:133,_RNCNvCs1lk7uXtNODC_4bake15parse_variables0B3_
FN:226,_RNCNvCs1lk7uXtNODC_4bake21handle_list_templates0B3_
FN:278,_RNCNvCs1lk7uXtNODC_4bake25handle_validate_templates0B3_
FN:140,_RNCNvCs1lk7uXtNODC_4bake26load_project_with_feedback0B3_
FN:402,_RNCNvCs1lk7uXtNODC_4bake8run_bake0B3_
FNDA:0,_RNCNCNvCs4EkGjsAKdp2_4bake13handle_render00Cs6G5DyER1L5a_4bake
FNDA:0,_RNCNCNvCs4EkGjsAKdp2_4bake13handle_render0s1_0Cs6G5DyER1L5a_4bake
FNDA:0,_RNCNCNvCs4EkGjsAKdp2_4bake8run_bake00Cs6G5DyER1L5a_4bake
FNDA:0,_RNCNCNvCs4EkGjsAKdp2_4bake8run_bake0s0_0Cs6G5DyER1L5a_4bake
FNDA:0,_RNCNCNvCs4EkGjsAKdp2_4bake8run_bake0s1_0Cs6G5DyER1L5a_4bake
FNDA:0,_RNCNCNvCs4EkGjsAKdp2_4bake8run_bake0s2_0Cs6G5DyER1L5a_4bake
FNDA:0,_RNCNCNvCs4EkGjsAKdp2_4bake8run_bake0s_0Cs6G5DyER1L5a_4bake
FNDA:0,_RNCNvCs4EkGjsAKdp2_4bake13handle_render0Cs6G5DyER1L5a_4bake
FNDA:0,_RNCNvCs4EkGjsAKdp2_4bake18handle_self_update0Cs6G5DyER1L5a_4bake
FNDA:0,_RNCNvCs4EkGjsAKdp2_4bake20handle_check_updates0Cs6G5DyER1L5a_4bake
FNDA:0,_RNCNvCs4EkGjsAKdp2_4bake21handle_list_templates0Cs6G5DyER1L5a_4bake
FNDA:0,_RNCNvCs4EkGjsAKdp2_4bake25handle_validate_templates0Cs6G5DyER1L5a_4bake
FNDA:0,_RNCNvCs4EkGjsAKdp2_4bake26load_project_with_feedback0Cs6G5DyER1L5a_4bake
FNDA:0,_RNCNvCs4EkGjsAKdp2_4bake3run0Cs6G5DyER1L5a_4bake
FNDA:0,_RNCNvCs4EkGjsAKdp2_4bake8run_bake0Cs6G5DyER1L5a_4bake
FNDA:0,_RNCNCNvCs4EkGjsAKdp2_4bake13handle_render00B5_
FNDA:0,_RNCNCNvCs4EkGjsAKdp2_4bake13handle_render0s1_0B5_
FNDA:0,_RNCNCNvCs4EkGjsAKdp2_4bake8run_bake00B5_
FNDA:0,_RNCNCNvCs4EkGjsAKdp2_4bake8run_bake0s0_0B5_
FNDA:0,_RNCNCNvCs4EkGjsAKdp2_4bake8run_bake0s1_0B5_
FNDA:0,_RNCNCNvCs4EkGjsAKdp2_4bake8run_bake0s2_0B5_
FNDA:0,_RNCNCNvCs4EkGjsAKdp2_4bake8run_bake0s_0B5_
FNDA:0,_RNCNvCs4EkGjsAKdp2_4bake13handle_render0B3_
FNDA:0,_RNCNvCs4EkGjsAKdp2_4bake18handle_self_update0B3_
FNDA:0,_RNCNvCs4EkGjsAKdp2_4bake20handle_check_updates0B3_
FNDA:0,_RNCNvCs4EkGjsAKdp2_4bake21handle_list_templates0B3_
FNDA:0,_RNCNvCs4EkGjsAKdp2_4bake25handle_validate_templates0B3_
FNDA:0,_RNCNvCs4EkGjsAKdp2_4bake26load_project_with_feedback0B3_
FNDA:0,_RNCNvCs4EkGjsAKdp2_4bake3run0B3_
FNDA:0,_RNCNvCs4EkGjsAKdp2_4bake8run_bake0B3_
FNDA:0,_RNCNvCs4EkGjsAKdp2_4bake15parse_variables0B3_
FNDA:0,_RNvCs4EkGjsAKdp2_4bake13handle_render
FNDA:0,_RNvCs4EkGjsAKdp2_4bake13parse_key_val
FNDA:0,_RNvCs4EkGjsAKdp2_4bake15parse_variables
FNDA:0,_RNvCs4EkGjsAKdp2_4bake17resolve_bake_path
FNDA:0,_RNvCs4EkGjsAKdp2_4bake18handle_self_update
FNDA:0,_RNvCs4EkGjsAKdp2_4bake20handle_check_updates
FNDA:0,_RNvCs4EkGjsAKdp2_4bake21handle_list_templates
FNDA:0,_RNvCs4EkGjsAKdp2_4bake25handle_validate_templates
FNDA:0,_RNvCs4EkGjsAKdp2_4bake26load_project_with_feedback
FNDA:0,_RNvCs4EkGjsAKdp2_4bake3run
FNDA:0,_RNvCs4EkGjsAKdp2_4bake8run_bake
FNDA:0,_RNCNCNvCs1lk7uXtNODC_4bake13handle_render00B5_
FNDA:0,_RNCNCNvCs1lk7uXtNODC_4bake13handle_render0s1_0B5_
FNDA:0,_RNCNvCs1lk7uXtNODC_4bake13handle_render0B3_
FNDA:0,_RNCNvCs1lk7uXtNODC_4bake18handle_self_update0B3_
FNDA:0,_RNCNvCs1lk7uXtNODC_4bake20handle_check_updates0B3_
FNDA:0,_RNCNvCs1lk7uXtNODC_4bake3run0B3_
FNDA:0,_RNvCs1lk7uXtNODC_4bake13handle_render
FNDA:0,_RNvCs1lk7uXtNODC_4bake18handle_self_update
FNDA:0,_RNvCs1lk7uXtNODC_4bake20handle_check_updates
FNDA:0,_RNvCs1lk7uXtNODC_4bake3run
FNDA:1,_RNvNtCs1lk7uXtNODC_4bake5testss_14test_constants
FNDA:1,_RNvNtCs1lk7uXtNODC_4bake5testss_22test_args_struct_debug
FNDA:1,_RNvNtCs1lk7uXtNODC_4bake5testss_24test_parse_key_val_valid
FNDA:1,_RNvNtCs1lk7uXtNODC_4bake5testss_24test_run_bake_no_recipes
FNDA:1,_RNvNtCs1lk7uXtNODC_4bake5testss_26test_parse_variables_empty
FNDA:1,_RNvNtCs1lk7uXtNODC_4bake5testss_27test_parse_variables_single
FNDA:1,_RNvNtCs1lk7uXtNODC_4bake5testss_27test_resolve_bake_path_none
FNDA:1,_RNvNtCs1lk7uXtNODC_4bake5testss_29test_parse_variables_multiple
FNDA:1,_RNvNtCs1lk7uXtNODC_4bake5testss_30test_parse_key_val_empty_value
FNDA:1,_RNvNtCs1lk7uXtNODC_4bake5testss_32test_resolve_bake_path_with_path
FNDA:1,_RNvNtCs1lk7uXtNODC_4bake5testss_35test_parse_key_val_invalid_only_key
FNDA:1,_RNvNtCs1lk7uXtNODC_4bake5testss_36test_parse_key_val_invalid_no_equals
FNDA:1,_RNvNtCs1lk7uXtNODC_4bake5testss_39test_handle_list_templates_no_templates
FNDA:1,_RNvNtCs1lk7uXtNODC_4bake5testss_39test_parse_key_val_with_equals_in_value
FNDA:1,_RNvNtCs1lk7uXtNODC_4bake5testss_43test_handle_validate_templates_no_templates
FNDA:1,_RNCNvNtCs1lk7uXtNODC_4bake5testss_24test_run_bake_no_recipes0B5_
FNDA:1,_RNCNvNtCs1lk7uXtNODC_4bake5testss_39test_handle_list_templates_no_templates0B5_
FNDA:1,_RNCNvNtCs1lk7uXtNODC_4bake5testss_43test_handle_validate_templates_no_templates0B5_
FNDA:5,_RNvCs1lk7uXtNODC_4bake13parse_key_val
FNDA:6,_RNvCs1lk7uXtNODC_4bake15parse_variables
FNDA:5,_RNvCs1lk7uXtNODC_4bake17resolve_bake_path
FNDA:1,_RNvCs1lk7uXtNODC_4bake21handle_list_templates
FNDA:1,_RNvCs1lk7uXtNODC_4bake25handle_validate_templates
FNDA:3,_RNvCs1lk7uXtNODC_4bake26load_project_with_feedback
FNDA:1,_RNvCs1lk7uXtNODC_4bake8run_bake
FNDA:0,_RNCNCNvCs1lk7uXtNODC_4bake8run_bake00B5_
FNDA:0,_RNCNCNvCs1lk7uXtNODC_4bake8run_bake0s0_0B5_
FNDA:0,_RNCNCNvCs1lk7uXtNODC_4bake8run_bake0s1_0B5_
FNDA:0,_RNCNCNvCs1lk7uXtNODC_4bake8run_bake0s2_0B5_
FNDA:0,_RNCNCNvCs1lk7uXtNODC_4bake8run_bake0s_0B5_
FNDA:3,_RNCNvCs1lk7uXtNODC_4bake15parse_variables0B3_
FNDA:1,_RNCNvCs1lk7uXtNODC_4bake21handle_list_templates0B3_
FNDA:1,_RNCNvCs1lk7uXtNODC_4bake25handle_validate_templates0B3_
FNDA:3,_RNCNvCs1lk7uXtNODC_4bake26load_project_with_feedback0B3_
FNDA:1,_RNCNvCs1lk7uXtNODC_4bake8run_bake0B3_
FNF:45
FNH:30
DA:124,5
DA:125,5
DA:126,5
DA:127,2
DA:128,3
DA:129,3
DA:130,5
DA:132,6
DA:133,6
DA:134,6
DA:136,3
DA:137,3
DA:138,3
DA:139,3
DA:140,3
DA:141,3
DA:142,3
DA:144,3
DA:145,3
DA:146,0
DA:148,3
DA:149,3
DA:150,3
DA:151,3
DA:152,3
DA:153,3
DA:154,3
DA:155,0
DA:156,0
DA:157,0
DA:158,0
DA:159,0
DA:160,0
DA:161,0
DA:165,3
DA:166,3
DA:167,3
DA:168,3
DA:169,0
DA:172,3
DA:173,3
DA:174,3
DA:175,3
DA:176,3
DA:177,3
DA:178,3
DA:179,3
DA:180,0
DA:182,3
DA:183,3
DA:185,5
DA:186,5
DA:187,4
DA:188,1
DA:189,1
DA:191,5
DA:193,0
DA:194,0
DA:196,0
DA:197,0
DA:198,0
DA:199,0
DA:200,0
DA:203,0
DA:204,0
DA:206,0
DA:207,0
DA:208,0
DA:209,0
DA:210,0
DA:211,0
DA:212,0
DA:214,0
DA:215,0
DA:216,0
DA:217,0
DA:218,0
DA:219,0
DA:220,0
DA:221,0
DA:223,0
DA:224,0
DA:226,1
DA:227,1
DA:228,1
DA:229,1
DA:231,1
DA:232,1
DA:233,1
DA:234,0
DA:236,0
DA:237,0
DA:239,0
DA:240,0
DA:242,0
DA:243,0
DA:244,0
DA:246,0
DA:247,0
DA:248,0
DA:249,0
DA:250,0
DA:251,0
DA:252,0
DA:253,0
DA:254,0
DA:257,0
DA:258,0
DA:259,0
DA:261,0
DA:264,0
DA:266,0
DA:267,0
DA:268,0
DA:270,0
DA:272,0
DA:275,0
DA:276,1
DA:278,1
DA:279,1
DA:280,1
DA:281,1
DA:283,1
DA:284,1
DA:285,1
DA:286,0
DA:288,0
DA:289,0
DA:291,0
DA:293,0
DA:294,0
DA:297,0
DA:298,0
DA:299,0
DA:300,0
DA:301,0
DA:304,0
DA:305,0
DA:306,0
DA:307,0
DA:308,0
DA:309,0
DA:310,0
DA:311,0
DA:312,0
DA:313,0
DA:314,0
DA:315,0
DA:319,0
DA:320,0
DA:321,0
DA:322,0
DA:323,0
DA:324,0
DA:327,0
DA:328,1
DA:330,0
DA:331,0
DA:332,0
DA:333,0
DA:334,0
DA:336,0
DA:337,0
DA:340,0
DA:341,0
DA:343,0
DA:344,0
DA:345,0
DA:346,0
DA:347,0
DA:349,0
DA:351,0
DA:353,0
DA:357,0
DA:358,0
DA:359,0
DA:360,0
DA:362,0
DA:363,0
DA:367,0
DA:368,0
DA:369,0
DA:370,0
DA:371,0
DA:372,0
DA:376,0
DA:377,0
DA:380,0
DA:381,0
DA:384,0
DA:385,0
DA:388,0
DA:389,0
DA:390,0
DA:391,0
DA:392,0
DA:394,0
DA:395,0
DA:396,0
DA:399,0
DA:400,0
DA:402,1
DA:403,1
DA:404,1
DA:405,1
DA:408,1
DA:409,0
DA:411,0
DA:412,0
DA:413,0
DA:414,0
DA:416,0
DA:417,0
DA:420,0
DA:421,0
DA:422,0
DA:423,0
DA:424,0
DA:426,0
DA:427,0
DA:428,0
DA:431,0
DA:432,0
DA:435,0
DA:436,0
DA:437,0
DA:438,0
DA:439,0
DA:441,0
DA:442,0
DA:443,0
DA:444,0
DA:446,0
DA:447,0
DA:449,0
DA:450,0
DA:452,0
DA:454,0
DA:457,0
DA:458,1
DA:461,1
DA:463,1
DA:464,1
DA:465,1
DA:466,0
DA:469,0
DA:471,0
DA:472,0
DA:473,0
DA:476,0
DA:477,0
DA:478,0
DA:479,0
DA:480,0
DA:483,0
DA:484,0
DA:485,0
DA:488,0
DA:491,0
DA:492,0
DA:493,0
DA:496,0
DA:497,0
DA:498,0
DA:499,0
DA:500,0
DA:502,0
DA:503,0
DA:504,0
DA:507,0
DA:508,1
DA:511,0
DA:512,0
DA:514,0
DA:515,0
DA:516,0
DA:517,0
DA:519,0
DA:521,0
DA:522,0
DA:523,0
DA:525,0
DA:526,0
DA:527,0
DA:530,0
DA:531,0
DA:532,0
DA:534,0
DA:535,0
DA:536,0
DA:538,0
DA:539,0
DA:540,0
DA:543,0
DA:544,0
DA:553,1
DA:554,1
DA:555,1
DA:556,1
DA:559,1
DA:560,1
DA:561,1
DA:562,1
DA:565,1
DA:566,1
DA:567,1
DA:568,1
DA:571,1
DA:572,1
DA:573,1
DA:574,1
DA:575,1
DA:578,1
DA:579,1
DA:580,1
DA:581,1
DA:584,1
DA:585,1
DA:586,1
DA:587,1
DA:588,1
DA:591,1
DA:592,1
DA:593,1
DA:594,1
DA:595,1
DA:596,1
DA:599,1
DA:600,1
DA:601,1
DA:602,1
DA:604,1
DA:605,1
DA:606,1
DA:607,1
DA:608,1
DA:611,1
DA:612,1
DA:613,1
DA:614,1
DA:615,1
DA:618,1
DA:619,1
DA:620,1
DA:622,1
DA:623,1
DA:626,1
DA:627,1
DA:630,1
DA:631,1
DA:632,1
DA:633,1
DA:635,1
DA:636,1
DA:637,1
DA:638,1
DA:639,1
DA:640,1
DA:641,1
DA:642,1
DA:643,1
DA:644,1
DA:645,1
DA:646,1
DA:647,1
DA:648,1
DA:649,1
DA:650,1
DA:651,1
DA:652,1
DA:653,1
DA:654,1
DA:655,1
DA:658,1
DA:659,1
DA:660,1
DA:663,1
DA:664,1
DA:667,1
DA:668,1
DA:669,1
DA:670,1
DA:672,1
DA:673,1
DA:674,1
DA:675,1
DA:676,1
DA:677,1
DA:678,1
DA:679,1
DA:680,1
DA:681,1
DA:682,1
DA:683,1
DA:684,1
DA:685,1
DA:686,1
DA:687,1
DA:688,1
DA:689,1
DA:690,1
DA:691,1
DA:692,1
DA:695,1
DA:696,1
DA:697,1
DA:700,1
DA:701,1
DA:704,1
DA:705,1
DA:706,1
DA:707,1
DA:709,1
DA:710,1
DA:711,1
DA:712,1
DA:713,1
DA:714,1
DA:715,1
DA:716,1
DA:717,1
DA:718,1
DA:719,1
DA:720,1
DA:721,1
DA:722,1
DA:723,1
DA:724,1
DA:725,1
DA:726,1
DA:727,1
DA:728,1
DA:729,1
DA:732,1
DA:733,1
DA:734,1
DA:737,1
DA:738,1
DA:739,1
DA:740,1
DA:741,1
DA:742,1
DA:743,1
DA:744,1
DA:745,1
DA:746,1
DA:747,1
DA:748,1
DA:749,1
DA:750,1
DA:751,1
DA:752,1
DA:753,1
DA:754,1
DA:755,1
DA:756,1
DA:757,1
DA:758,1
DA:761,1
DA:762,1
DA:765,1
DA:767,1
DA:768,1
DA:769,1
DA:770,1
BRF:0
BRH:0
LF:487
LH:254
end_of_record
SF:/Users/theoribeiro/Dev/tools/bake/src/main.rs
FN:2,_RNvCs6G5DyER1L5a_4bake4main
FN:2,_RNCNvCs6G5DyER1L5a_4bake4main0B3_
FN:2,_RNCNvCsibqvLVxu3b6_4bake4main0B3_
FN:2,_RNvCsibqvLVxu3b6_4bake4main
FNDA:0,_RNvCs6G5DyER1L5a_4bake4main
FNDA:0,_RNCNvCs6G5DyER1L5a_4bake4main0B3_
FNDA:0,_RNCNvCsibqvLVxu3b6_4bake4main0B3_
FNDA:0,_RNvCsibqvLVxu3b6_4bake4main
FNF:2
FNH:0
DA:2,0
DA:3,0
DA:4,0
BRF:0
BRH:0
LF:5
LH:0
end_of_record
SF:/Users/theoribeiro/Dev/tools/bake/src/project/config.rs
FN:90,_RNvNtNtCs4EkGjsAKdp2_4bake7project6config14validate_order
FN:144,_RNvNtNtCs4EkGjsAKdp2_4bake7project6config17bool_true_default
FN:148,_RNvNtNtCs4EkGjsAKdp2_4bake7project6config20max_parallel_default
FN:152,_RNvNtNtCs4EkGjsAKdp2_4bake7project6config29update_check_interval_default
FN:15,_RNvXNtNtCs4EkGjsAKdp2_4bake7project6configNtB2_16LocalCacheConfigNtNtCs4ZQmVerOrPM_4core7default7Default7default
FN:80,_RNvXs0_NtNtCs4EkGjsAKdp2_4bake7project6configNtB5_12UpdateConfigNtNtCs4ZQmVerOrPM_4core7default7Default7default
FN:131,_RNvXs1_NtNtCs4EkGjsAKdp2_4bake7project6configNtB5_10ToolConfigNtNtCs4ZQmVerOrPM_4core7default7Default7default
FN:54,_RNvXs_NtNtCs4EkGjsAKdp2_4bake7project6configNtB4_11CacheConfigNtNtCs4ZQmVerOrPM_4core7default7Default7default
FN:93,_RNCNvNtNtCs4EkGjsAKdp2_4bake7project6config14validate_order0B7_
FN:90,_RNvNtNtCs1lk7uXtNODC_4bake7project6config14validate_order
FN:144,_RNvNtNtCs1lk7uXtNODC_4bake7project6config17bool_true_default
FN:148,_RNvNtNtCs1lk7uXtNODC_4bake7project6config20max_parallel_default
FN:152,_RNvNtNtCs1lk7uXtNODC_4bake7project6config29update_check_interval_default
FN:15,_RNvXNtNtCs1lk7uXtNODC_4bake7project6configNtB2_16LocalCacheConfigNtNtCs4ZQmVerOrPM_4core7default7Default7default
FN:80,_RNvXs0_NtNtCs1lk7uXtNODC_4bake7project6configNtB5_12UpdateConfigNtNtCs4ZQmVerOrPM_4core7default7Default7default
FN:131,_RNvXs1_NtNtCs1lk7uXtNODC_4bake7project6configNtB5_10ToolConfigNtNtCs4ZQmVerOrPM_4core7default7Default7default
FN:54,_RNvXs_NtNtCs1lk7uXtNODC_4bake7project6configNtB4_11CacheConfigNtNtCs4ZQmVerOrPM_4core7default7Default7default
FN:93,_RNCNvNtNtCs1lk7uXtNODC_4bake7project6config14validate_order0B7_
FN:279,_RNvNtNtNtCs1lk7uXtNODC_4bake7project6config5testss_24test_tool_config_default
FN:201,_RNvNtNtNtCs1lk7uXtNODC_4bake7project6config5testss_25test_cache_config_default
FN:255,_RNvNtNtNtCs1lk7uXtNODC_4bake7project6config5testss_26test_update_config_default
FN:362,_RNvNtNtNtCs1lk7uXtNODC_4bake7project6config5testss_27test_cache_order_validation
FN:163,_RNvNtNtNtCs1lk7uXtNODC_4bake7project6config5testss_31test_local_cache_config_default
FN:292,_RNvNtNtNtCs1lk7uXtNODC_4bake7project6config5testss_32test_tool_config_deserialization
FN:374,_RNvNtNtNtCs1lk7uXtNODC_4bake7project6config5testss_33test_valid_cache_order_validation
FN:264,_RNvNtNtNtCs1lk7uXtNODC_4bake7project6config5testss_34test_update_config_deserialization
FN:181,_RNvNtNtNtCs1lk7uXtNODC_4bake7project6config5testss_36test_s3_cache_config_deserialization
FN:192,_RNvNtNtNtCs1lk7uXtNODC_4bake7project6config5testss_37test_gcs_cache_config_deserialization
FN:170,_RNvNtNtNtCs1lk7uXtNODC_4bake7project6config5testss_39test_local_cache_config_deserialization
FN:307,_RNvNtNtNtCs1lk7uXtNODC_4bake7project6config5testss_40test_complex_tool_config_deserialization
FN:209,_RNvNtNtNtCs1lk7uXtNODC_4bake7project6config5testss_41test_cache_config_with_s3_deserialization
FN:234,_RNvNtNtNtCs1lk7uXtNODC_4bake7project6config5testss_42test_cache_config_with_gcs_deserialization
FNDA:7,_RNvNtNtCs4EkGjsAKdp2_4bake7project6config14validate_order
FNDA:0,_RNvNtNtCs4EkGjsAKdp2_4bake7project6config17bool_true_default
FNDA:21,_RNvNtNtCs4EkGjsAKdp2_4bake7project6config20max_parallel_default
FNDA:21,_RNvNtNtCs4EkGjsAKdp2_4bake7project6config29update_check_interval_default
FNDA:21,_RNvXNtNtCs4EkGjsAKdp2_4bake7project6configNtB2_16LocalCacheConfigNtNtCs4ZQmVerOrPM_4core7default7Default7default
FNDA:21,_RNvXs0_NtNtCs4EkGjsAKdp2_4bake7project6configNtB5_12UpdateConfigNtNtCs4ZQmVerOrPM_4core7default7Default7default
FNDA:19,_RNvXs1_NtNtCs4EkGjsAKdp2_4bake7project6configNtB5_10ToolConfigNtNtCs4ZQmVerOrPM_4core7default7Default7default
FNDA:20,_RNvXs_NtNtCs4EkGjsAKdp2_4bake7project6configNtB4_11CacheConfigNtNtCs4ZQmVerOrPM_4core7default7Default7default
FNDA:0,_RNCNvNtNtCs4EkGjsAKdp2_4bake7project6config14validate_order0B7_
FNDA:48,_RNvNtNtCs1lk7uXtNODC_4bake7project6config14validate_order
FNDA:0,_RNvNtNtCs1lk7uXtNODC_4bake7project6config17bool_true_default
FNDA:60,_RNvNtNtCs1lk7uXtNODC_4bake7project6config20max_parallel_default
FNDA:62,_RNvNtNtCs1lk7uXtNODC_4bake7project6config29update_check_interval_default
FNDA:26,_RNvXNtNtCs1lk7uXtNODC_4bake7project6configNtB2_16LocalCacheConfigNtNtCs4ZQmVerOrPM_4core7default7Default7default
FNDA:62,_RNvXs0_NtNtCs1lk7uXtNODC_4bake7project6configNtB5_12UpdateConfigNtNtCs4ZQmVerOrPM_4core7default7Default7default
FNDA:21,_RNvXs1_NtNtCs1lk7uXtNODC_4bake7project6configNtB5_10ToolConfigNtNtCs4ZQmVerOrPM_4core7default7Default7default
FNDA:23,_RNvXs_NtNtCs1lk7uXtNODC_4bake7project6configNtB4_11CacheConfigNtNtCs4ZQmVerOrPM_4core7default7Default7default
FNDA:4,_RNCNvNtNtCs1lk7uXtNODC_4bake7project6config14validate_order0B7_
FNDA:1,_RNvNtNtNtCs1lk7uXtNODC_4bake7project6config5testss_24test_tool_config_default
FNDA:1,_RNvNtNtNtCs1lk7uXtNODC_4bake7project6config5testss_25test_cache_config_default
FNDA:1,_RNvNtNtNtCs1lk7uXtNODC_4bake7project6config5testss_26test_update_config_default
FNDA:1,_RNvNtNtNtCs1lk7uXtNODC_4bake7project6config5testss_27test_cache_order_validation
FNDA:1,_RNvNtNtNtCs1lk7uXtNODC_4bake7project6config5testss_31test_local_cache_config_default
FNDA:1,_RNvNtNtNtCs1lk7uXtNODC_4bake7project6config5testss_32test_tool_config_deserialization
FNDA:1,_RNvNtNtNtCs1lk7uXtNODC_4bake7project6config5testss_33test_valid_cache_order_validation
FNDA:1,_RNvNtNtNtCs1lk7uXtNODC_4bake7project6config5testss_34test_update_config_deserialization
FNDA:1,_RNvNtNtNtCs1lk7uXtNODC_4bake7project6config5testss_36test_s3_cache_config_deserialization
FNDA:1,_RNvNtNtNtCs1lk7uXtNODC_4bake7project6config5testss_37test_gcs_cache_config_deserialization
FNDA:1,_RNvNtNtNtCs1lk7uXtNODC_4bake7project6config5testss_39test_local_cache_config_deserialization
FNDA:1,_RNvNtNtNtCs1lk7uXtNODC_4bake7project6config5testss_40test_complex_tool_config_deserialization
FNDA:1,_RNvNtNtNtCs1lk7uXtNODC_4bake7project6config5testss_41test_cache_config_with_s3_deserialization
FNDA:1,_RNvNtNtNtCs1lk7uXtNODC_4bake7project6config5testss_42test_cache_config_with_gcs_deserialization
FNF:23
FNH:22
DA:15,47
DA:16,47
DA:17,47
DA:18,47
DA:19,47
DA:20,47
DA:54,43
DA:55,43
DA:56,43
DA:57,43
DA:58,43
DA:59,43
DA:60,43
DA:61,43
DA:80,83
DA:81,83
DA:82,83
DA:83,83
DA:84,83
DA:85,83
DA:86,83
DA:87,83
DA:90,55
DA:91,55
DA:92,55
DA:93,55
DA:94,55
DA:95,1
DA:96,1
DA:97,1
DA:99,54
DA:101,55
DA:131,40
DA:132,40
DA:133,40
DA:134,40
DA:135,40
DA:136,40
DA:137,40
DA:138,40
DA:139,40
DA:140,40
DA:141,40
DA:144,0
DA:145,0
DA:146,0
DA:148,81
DA:149,81
DA:150,81
DA:152,83
DA:153,83
DA:154,83
DA:163,1
DA:164,1
DA:165,1
DA:166,1
DA:167,1
DA:170,1
DA:171,1
DA:172,1
DA:173,1
DA:174,1
DA:175,1
DA:176,1
DA:177,1
DA:178,1
DA:181,1
DA:182,1
DA:183,1
DA:184,1
DA:185,1
DA:186,1
DA:187,1
DA:188,1
DA:189,1
DA:192,1
DA:193,1
DA:194,1
DA:195,1
DA:196,1
DA:197,1
DA:198,1
DA:201,1
DA:202,1
DA:203,1
DA:204,1
DA:205,1
DA:206,1
DA:209,1
DA:210,1
DA:211,1
DA:212,1
DA:213,1
DA:214,1
DA:215,1
DA:216,1
DA:217,1
DA:218,1
DA:219,1
DA:220,1
DA:222,1
DA:223,1
DA:225,1
DA:226,1
DA:227,1
DA:228,1
DA:230,1
DA:231,1
DA:234,1
DA:235,1
DA:236,1
DA:237,1
DA:238,1
DA:239,1
DA:240,1
DA:241,1
DA:242,1
DA:243,1
DA:245,1
DA:247,1
DA:248,1
DA:249,1
DA:251,1
DA:252,1
DA:255,1
DA:256,1
DA:257,1
DA:258,1
DA:259,1
DA:260,1
DA:261,1
DA:264,1
DA:265,1
DA:266,1
DA:267,1
DA:268,1
DA:269,1
DA:270,1
DA:271,1
DA:272,1
DA:273,1
DA:274,1
DA:275,1
DA:276,1
DA:279,1
DA:280,1
DA:281,1
DA:282,1
DA:283,1
DA:284,1
DA:287,1
DA:288,1
DA:289,1
DA:292,1
DA:293,1
DA:294,1
DA:295,1
DA:296,1
DA:297,1
DA:298,1
DA:299,1
DA:300,1
DA:301,1
DA:302,1
DA:303,1
DA:304,1
DA:307,1
DA:308,1
DA:309,1
DA:310,1
DA:311,1
DA:312,1
DA:313,1
DA:314,1
DA:315,1
DA:316,1
DA:317,1
DA:318,1
DA:319,1
DA:320,1
DA:321,1
DA:322,1
DA:323,1
DA:324,1
DA:325,1
DA:326,1
DA:327,1
DA:328,1
DA:329,1
DA:330,1
DA:333,1
DA:334,1
DA:335,1
DA:336,1
DA:339,1
DA:340,1
DA:342,1
DA:343,1
DA:344,1
DA:346,1
DA:347,1
DA:349,1
DA:352,1
DA:353,1
DA:354,1
DA:355,1
DA:358,1
DA:359,1
DA:362,1
DA:363,1
DA:364,1
DA:365,1
DA:366,1
DA:367,1
DA:370,1
DA:371,1
DA:374,1
DA:375,1
DA:376,1
DA:377,1
DA:378,1
DA:379,1
DA:380,1
DA:383,1
DA:384,1
BRF:0
BRH:0
LF:226
LH:223
end_of_record
SF:/Users/theoribeiro/Dev/tools/bake/src/project/cookbook.rs
FN:136,_RNCNCNvMNtNtCs4EkGjsAKdp2_4bake7project8cookbookNtB6_8Cookbook4froms0_00Ba_
FN:53,_RNCNvMNtNtCs4EkGjsAKdp2_4bake7project8cookbookNtB4_8Cookbook4from0B8_
FN:103,_RNCNvMNtNtCs4EkGjsAKdp2_4bake7project8cookbookNtB4_8Cookbook4froms0_0B8_
FN:74,_RNCNvMNtNtCs4EkGjsAKdp2_4bake7project8cookbookNtB4_8Cookbook4froms_0B8_
FN:173,_RNCNvMNtNtCs4EkGjsAKdp2_4bake7project8cookbookNtB4_8Cookbook8map_from0B8_
FN:41,_RNvMNtNtCs4EkGjsAKdp2_4bake7project8cookbookNtB2_8Cookbook4from
FN:164,_RNvMNtNtCs4EkGjsAKdp2_4bake7project8cookbookNtB2_8Cookbook8map_from
FN:41,_RNvMNtNtCs1lk7uXtNODC_4bake7project8cookbookNtB2_8Cookbook4from
FN:164,_RNvMNtNtCs1lk7uXtNODC_4bake7project8cookbookNtB2_8Cookbook8map_from
FN:204,_RNvNtNtNtCs1lk7uXtNODC_4bake7project8cookbook4test11config_path
FN:219,_RNvNtNtNtCs1lk7uXtNODC_4bake7project8cookbook4test13read_cookbook
FN:234,_RNvNtNtNtCs1lk7uXtNODC_4bake7project8cookbook4test18read_all_cookbooks
FN:208,_RNvNtNtNtCs1lk7uXtNODC_4bake7project8cookbook4test21validate_cookbook_foo
FN:212,_RNvNtNtNtCs1lk7uXtNODC_4bake7project8cookbook4test21validate_cookbook_vec
FN:247,_RNvNtNtNtCs1lk7uXtNODC_4bake7project8cookbook4tests_27test_yaml_type_preservation
FN:306,_RNvNtNtNtCs1lk7uXtNODC_4bake7project8cookbook4tests_32test_handlebars_cookbook_parsing
FN:136,_RNCNCNvMNtNtCs1lk7uXtNODC_4bake7project8cookbookNtB6_8Cookbook4froms0_00Ba_
FN:53,_RNCNvMNtNtCs1lk7uXtNODC_4bake7project8cookbookNtB4_8Cookbook4from0B8_
FN:103,_RNCNvMNtNtCs1lk7uXtNODC_4bake7project8cookbookNtB4_8Cookbook4froms0_0B8_
FN:74,_RNCNvMNtNtCs1lk7uXtNODC_4bake7project8cookbookNtB4_8Cookbook4froms_0B8_
FN:173,_RNCNvMNtNtCs1lk7uXtNODC_4bake7project8cookbookNtB4_8Cookbook8map_from0B8_
FNDA:14,_RNCNCNvMNtNtCs4EkGjsAKdp2_4bake7project8cookbookNtB6_8Cookbook4froms0_00Ba_
FNDA:0,_RNCNvMNtNtCs4EkGjsAKdp2_4bake7project8cookbookNtB4_8Cookbook4from0B8_
FNDA:22,_RNCNvMNtNtCs4EkGjsAKdp2_4bake7project8cookbookNtB4_8Cookbook4froms0_0B8_
FNDA:0,_RNCNvMNtNtCs4EkGjsAKdp2_4bake7project8cookbookNtB4_8Cookbook4froms_0B8_
FNDA:57,_RNCNvMNtNtCs4EkGjsAKdp2_4bake7project8cookbookNtB4_8Cookbook8map_from0B8_
FNDA:10,_RNvMNtNtCs4EkGjsAKdp2_4bake7project8cookbookNtB2_8Cookbook4from
FNDA:7,_RNvMNtNtCs4EkGjsAKdp2_4bake7project8cookbookNtB2_8Cookbook8map_from
FNDA:170,_RNvMNtNtCs1lk7uXtNODC_4bake7project8cookbookNtB2_8Cookbook4from
FNDA:47,_RNvMNtNtCs1lk7uXtNODC_4bake7project8cookbookNtB2_8Cookbook8map_from
FNDA:8,_RNvNtNtNtCs1lk7uXtNODC_4bake7project8cookbook4test11config_path
FNDA:3,_RNvNtNtNtCs1lk7uXtNODC_4bake7project8cookbook4test13read_cookbook
FNDA:2,_RNvNtNtNtCs1lk7uXtNODC_4bake7project8cookbook4test18read_all_cookbooks
FNDA:1,_RNvNtNtNtCs1lk7uXtNODC_4bake7project8cookbook4test21validate_cookbook_foo
FNDA:1,_RNvNtNtNtCs1lk7uXtNODC_4bake7project8cookbook4test21validate_cookbook_vec
FNDA:1,_RNvNtNtNtCs1lk7uXtNODC_4bake7project8cookbook4tests_27test_yaml_type_preservation
FNDA:1,_RNvNtNtNtCs1lk7uXtNODC_4bake7project8cookbook4tests_32test_handlebars_cookbook_parsing
FNDA:288,_RNCNCNvMNtNtCs1lk7uXtNODC_4bake7project8cookbookNtB6_8Cookbook4froms0_00Ba_
FNDA:0,_RNCNvMNtNtCs1lk7uXtNODC_4bake7project8cookbookNtB4_8Cookbook4from0B8_
FNDA:570,_RNCNvMNtNtCs1lk7uXtNODC_4bake7project8cookbookNtB4_8Cookbook4froms0_0B8_
FNDA:0,_RNCNvMNtNtCs1lk7uXtNODC_4bake7project8cookbookNtB4_8Cookbook4froms_0B8_
FNDA:1458,_RNCNvMNtNtCs1lk7uXtNODC_4bake7project8cookbookNtB4_8Cookbook8map_from0B8_
FNF:14
FNH:12
DA:41,180
DA:42,180
DA:43,180
DA:44,180
DA:45,180
DA:46,180
DA:47,180
DA:48,179
DA:49,1
DA:53,179
DA:54,0
DA:55,0
DA:58,179
DA:59,179
DA:60,179
DA:63,179
DA:64,179
DA:65,179
DA:68,179
DA:69,178
DA:72,1
DA:73,1
DA:74,1
DA:78,179
DA:81,179
DA:84,179
DA:85,176
DA:86,176
DA:89,176
DA:90,176
DA:91,176
DA:93,176
DA:95,176
DA:98,176
DA:99,176
DA:100,176
DA:101,176
DA:103,592
DA:104,592
DA:105,592
DA:106,592
DA:107,592
DA:110,592
DA:111,592
DA:112,592
DA:115,592
DA:118,592
DA:119,592
DA:120,592
DA:121,592
DA:122,592
DA:123,592
DA:124,592
DA:126,0
DA:131,592
DA:132,592
DA:133,592
DA:135,592
DA:136,302
DA:137,302
DA:138,251
DA:140,51
DA:142,302
DA:143,259
DA:144,333
DA:146,592
DA:147,592
DA:148,176
DA:150,3
DA:152,180
DA:164,54
DA:165,54
DA:166,54
DA:167,54
DA:168,54
DA:169,54
DA:170,54
DA:171,54
DA:172,54
DA:173,1515
DA:174,1515
DA:175,1515
DA:176,1515
DA:177,0
DA:179,1515
DA:180,176
DA:181,174
DA:182,2
DA:185,1339
DA:189,0
DA:190,0
DA:192,1515
DA:193,54
DA:194,54
DA:204,8
DA:205,8
DA:206,8
DA:208,1
DA:209,1
DA:210,1
DA:212,1
DA:213,1
DA:214,1
DA:219,3
DA:220,3
DA:221,3
DA:222,3
DA:223,3
DA:224,3
DA:225,3
DA:226,3
DA:227,3
DA:228,3
DA:230,3
DA:234,2
DA:235,2
DA:236,2
DA:237,2
DA:238,2
DA:239,2
DA:240,2
DA:241,2
DA:242,2
DA:244,2
DA:247,1
DA:252,1
DA:253,1
DA:254,1
DA:255,1
DA:256,1
DA:257,1
DA:258,1
DA:259,1
DA:260,1
DA:261,1
DA:262,1
DA:263,1
DA:264,1
DA:265,1
DA:266,1
DA:267,1
DA:268,1
DA:270,1
DA:273,1
DA:274,1
DA:275,1
DA:276,1
DA:277,1
DA:278,1
DA:279,1
DA:280,1
DA:282,1
DA:285,1
DA:288,1
DA:289,1
DA:290,1
DA:292,1
DA:293,1
DA:296,1
DA:297,1
DA:299,1
DA:300,0
DA:301,0
DA:302,0
DA:303,1
DA:306,1
DA:310,1
DA:311,1
DA:312,1
DA:315,1
DA:316,1
DA:317,1
DA:318,1
DA:319,1
DA:320,1
DA:322,1
DA:323,1
DA:324,1
DA:325,1
DA:326,1
DA:327,1
DA:328,1
DA:329,1
DA:330,1
DA:331,1
DA:332,1
DA:333,1
DA:334,1
DA:335,1
DA:336,1
DA:337,1
DA:338,1
DA:339,1
DA:340,1
DA:341,1
DA:342,1
DA:343,1
DA:344,1
DA:345,1
DA:347,1
DA:349,1
DA:350,1
DA:351,1
DA:352,1
DA:353,1
DA:355,1
DA:356,1
DA:358,1
DA:359,1
DA:360,1
DA:361,1
DA:364,1
DA:365,1
DA:366,1
DA:369,1
DA:370,1
DA:372,0
DA:373,0
DA:376,1
BRF:0
BRH:0
LF:226
LH:211
end_of_record
SF:/Users/theoribeiro/Dev/tools/bake/src/project/graph.rs
FN:111,_RNCNCNCNvMNtNtCs4EkGjsAKdp2_4bake7project5graphNtB8_21RecipeDependencyGraph46add_dependency_edges_and_validate_dependenciess_000Bc_
FN:109,_RNCNCNvMNtNtCs4EkGjsAKdp2_4bake7project5graphNtB6_21RecipeDependencyGraph46add_dependency_edges_and_validate_dependenciess_00Ba_
FN:75,_RNCNvMNtNtCs4EkGjsAKdp2_4bake7project5graphNtB4_21RecipeDependencyGraph31add_recipe_nodes_from_cookbooks0B8_
FN:76,_RNCNvMNtNtCs4EkGjsAKdp2_4bake7project5graphNtB4_21RecipeDependencyGraph31add_recipe_nodes_from_cookbookss_0B8_
FN:163,_RNCNvMNtNtCs4EkGjsAKdp2_4bake7project5graphNtB4_21RecipeDependencyGraph31ensure_no_circular_dependencies0B8_
FN:94,_RNCNvMNtNtCs4EkGjsAKdp2_4bake7project5graphNtB4_21RecipeDependencyGraph46add_dependency_edges_and_validate_dependencies0B8_
FN:95,_RNCNvMNtNtCs4EkGjsAKdp2_4bake7project5graphNtB4_21RecipeDependencyGraph46add_dependency_edges_and_validate_dependenciess_0B8_
FN:65,_RNvMNtNtCs4EkGjsAKdp2_4bake7project5graphNtB2_21RecipeDependencyGraph16clear_graph_data
FN:53,_RNvMNtNtCs4EkGjsAKdp2_4bake7project5graphNtB2_21RecipeDependencyGraph23populate_from_cookbooks
FN:198,_RNvMNtNtCs4EkGjsAKdp2_4bake7project5graphNtB2_21RecipeDependencyGraph24get_all_dependencies_for
FN:72,_RNvMNtNtCs4EkGjsAKdp2_4bake7project5graphNtB2_21RecipeDependencyGraph31add_recipe_nodes_from_cookbooks
FN:147,_RNvMNtNtCs4EkGjsAKdp2_4bake7project5graphNtB2_21RecipeDependencyGraph31ensure_no_circular_dependencies
FN:289,_RNvMNtNtCs4EkGjsAKdp2_4bake7project5graphNtB2_21RecipeDependencyGraph31get_execution_order_for_targets
FN:239,_RNvMNtNtCs4EkGjsAKdp2_4bake7project5graphNtB2_21RecipeDependencyGraph38get_execution_plan_for_initial_targets
FN:29,_RNvMNtNtCs4EkGjsAKdp2_4bake7project5graphNtB2_21RecipeDependencyGraph3new
FN:88,_RNvMNtNtCs4EkGjsAKdp2_4bake7project5graphNtB2_21RecipeDependencyGraph46add_dependency_edges_and_validate_dependencies
FN:457,_RNCNvNtNtNtCs1lk7uXtNODC_4bake7project5graph5tests13create_recipe0B9_
FN:978,_RNCNvNtNtNtCs1lk7uXtNODC_4bake7project5graph5testss_27test_exec_order_complex_dag0B9_
FN:956,_RNCNvNtNtNtCs1lk7uXtNODC_4bake7project5graph5testss_34test_exec_order_dag_multiple_paths0B9_
FN:1130,_RNCNvNtNtNtCs1lk7uXtNODC_4bake7project5graph5testss_34test_exec_order_diamond_dependency0B9_
FN:857,_RNCNvNtNtNtCs1lk7uXtNODC_4bake7project5graph5testss_47test_populate_from_cookbooks_multiple_cookbooks0B9_
FN:690,_RNCNvNtNtNtCs1lk7uXtNODC_4bake7project5graph5testss_49test_get_all_dependencies_for_direct_dependencies0B9_
FN:1062,_RNCNvNtNtNtCs1lk7uXtNODC_4bake7project5graph5testss_50test_exec_order_disconnected_components_in_targets0B9_
FN:717,_RNCNvNtNtNtCs1lk7uXtNODC_4bake7project5graph5testss_53test_get_all_dependencies_for_transitive_dependencies0B9_
FN:726,_RNCNvNtNtNtCs1lk7uXtNODC_4bake7project5graph5testss_53test_get_all_dependencies_for_transitive_dependenciess_0B9_
FN:764,_RNCNvNtNtNtCs1lk7uXtNODC_4bake7project5graph5testss_63test_get_all_dependencies_for_multiple_paths_to_same_dependency0B9_
FN:451,_RNvNtNtNtCs1lk7uXtNODC_4bake7project5graph5tests13create_recipe
FN:473,_RNvNtNtNtCs1lk7uXtNODC_4bake7project5graph5tests15create_cookbook
FN:866,_RNvNtNtNtCs1lk7uXtNODC_4bake7project5graph5tests33create_graph_for_exec_order_tests
FN:427,_RNvNtNtNtCs1lk7uXtNODC_4bake7project5graph5tests38setup_single_cookbook_test_environment
FN:491,_RNvNtNtNtCs1lk7uXtNODC_4bake7project5graph5testss_23test_new_graph_is_empty
FN:966,_RNvNtNtNtCs1lk7uXtNODC_4bake7project5graph5testss_27test_exec_order_complex_dag
FN:1006,_RNvNtNtNtCs1lk7uXtNODC_4bake7project5graph5testss_28test_exec_order_cycle_direct
FN:886,_RNvNtNtNtCs1lk7uXtNODC_4bake7project5graph5testss_29test_exec_order_empty_targets
FN:1020,_RNvNtNtNtCs1lk7uXtNODC_4bake7project5graph5testss_30test_exec_order_cycle_indirect
FN:1142,_RNvNtNtNtCs1lk7uXtNODC_4bake7project5graph5testss_31test_plan_empty_initial_targets
FN:949,_RNvNtNtNtCs1lk7uXtNODC_4bake7project5graph5testss_34test_exec_order_dag_multiple_paths
FN:1124,_RNvNtNtNtCs1lk7uXtNODC_4bake7project5graph5testss_34test_exec_order_diamond_dependency
FN:580,_RNvNtNtNtCs1lk7uXtNODC_4bake7project5graph5testss_34test_populate_detects_direct_cycle
FN:644,_RNvNtNtNtCs1lk7uXtNODC_4bake7project5graph5testss_35test_populate_self_dependency_cycle
FN:610,_RNvNtNtNtCs1lk7uXtNODC_4bake7project5graph5testss_36test_populate_detects_indirect_cycle
FN:894,_RNvNtNtNtCs1lk7uXtNODC_4bake7project5graph5testss_37test_exec_order_single_target_no_deps
FN:1240,_RNvNtNtNtCs1lk7uXtNODC_4bake7project5graph5testss_37test_plan_initial_target_not_in_graph
FN:990,_RNvNtNtNtCs1lk7uXtNODC_4bake7project5graph5testss_39test_exec_order_target_fqn_not_in_graph
FN:1152,_RNvNtNtNtCs1lk7uXtNODC_4bake7project5graph5testss_39test_plan_single_initial_target_no_deps
FN:512,_RNvNtNtNtCs1lk7uXtNODC_4bake7project5graph5testss_39test_populate_from_cookbooks_simple_dag
FN:929,_RNvNtNtNtCs1lk7uXtNODC_4bake7project5graph5testss_40test_exec_order_longer_linear_dependency
FN:920,_RNvNtNtNtCs1lk7uXtNODC_4bake7project5graph5testss_40test_exec_order_simple_linear_dependency
FN:558,_RNvNtNtNtCs1lk7uXtNODC_4bake7project5graph5testss_40test_populate_detects_missing_dependency
FN:1040,_RNvNtNtNtCs1lk7uXtNODC_4bake7project5graph5testss_41test_exec_order_self_cycle_within_targets
FN:1162,_RNvNtNtNtCs1lk7uXtNODC_4bake7project5graph5testss_41test_plan_initial_target_with_direct_deps
FN:1075,_RNvNtNtNtCs1lk7uXtNODC_4bake7project5graph5testss_43test_exec_order_targets_are_subset_of_graph
FN:667,_RNvNtNtNtCs1lk7uXtNODC_4bake7project5graph5testss_45test_get_all_dependencies_for_no_dependencies
FN:1176,_RNvNtNtNtCs1lk7uXtNODC_4bake7project5graph5testss_45test_plan_initial_target_with_transitive_deps
FN:1253,_RNvNtNtNtCs1lk7uXtNODC_4bake7project5graph5testss_46test_plan_dependency_cycle_from_initial_target
FN:1197,_RNvNtNtNtCs1lk7uXtNODC_4bake7project5graph5testss_46test_plan_multiple_initial_targets_shared_deps
FN:780,_RNvNtNtNtCs1lk7uXtNODC_4bake7project5graph5testss_47test_populate_from_cookbooks_multiple_cookbooks
FN:679,_RNvNtNtNtCs1lk7uXtNODC_4bake7project5graph5testss_49test_get_all_dependencies_for_direct_dependencies
FN:736,_RNvNtNtNtCs1lk7uXtNODC_4bake7project5graph5testss_49test_get_all_dependencies_for_non_existent_recipe
FN:1052,_RNvNtNtNtCs1lk7uXtNODC_4bake7project5graph5testss_50test_exec_order_disconnected_components_in_targets
FN:902,_RNvNtNtNtCs1lk7uXtNODC_4bake7project5graph5testss_51test_exec_order_multiple_targets_no_deps_among_them
FN:703,_RNvNtNtNtCs1lk7uXtNODC_4bake7project5graph5testss_53test_get_all_dependencies_for_transitive_dependencies
FN:1269,_RNvNtNtNtCs1lk7uXtNODC_4bake7project5graph5testss_55test_plan_initial_target_is_part_of_cycle_but_not_entry
FN:1216,_RNvNtNtNtCs1lk7uXtNODC_4bake7project5graph5testss_60test_plan_multiple_initial_targets_independent_and_dependent
FN:749,_RNvNtNtNtCs1lk7uXtNODC_4bake7project5graph5testss_63test_get_all_dependencies_for_multiple_paths_to_same_dependency
FN:1285,_RNvNtNtNtCs1lk7uXtNODC_4bake7project5graph5testss_64test_plan_initial_target_with_dependency_not_in_graph_indirectly
FN:65,_RNvMNtNtCs1lk7uXtNODC_4bake7project5graphNtB2_21RecipeDependencyGraph16clear_graph_data
FN:53,_RNvMNtNtCs1lk7uXtNODC_4bake7project5graphNtB2_21RecipeDependencyGraph23populate_from_cookbooks
FN:198,_RNvMNtNtCs1lk7uXtNODC_4bake7project5graphNtB2_21RecipeDependencyGraph24get_all_dependencies_for
FN:72,_RNvMNtNtCs1lk7uXtNODC_4bake7project5graphNtB2_21RecipeDependencyGraph31add_recipe_nodes_from_cookbooks
FN:147,_RNvMNtNtCs1lk7uXtNODC_4bake7project5graphNtB2_21RecipeDependencyGraph31ensure_no_circular_dependencies
FN:289,_RNvMNtNtCs1lk7uXtNODC_4bake7project5graphNtB2_21RecipeDependencyGraph31get_execution_order_for_targets
FN:239,_RNvMNtNtCs1lk7uXtNODC_4bake7project5graphNtB2_21RecipeDependencyGraph38get_execution_plan_for_initial_targets
FN:29,_RNvMNtNtCs1lk7uXtNODC_4bake7project5graphNtB2_21RecipeDependencyGraph3new
FN:88,_RNvMNtNtCs1lk7uXtNODC_4bake7project5graphNtB2_21RecipeDependencyGraph46add_dependency_edges_and_validate_dependencies
FN:111,_RNCNCNCNvMNtNtCs1lk7uXtNODC_4bake7project5graphNtB8_21RecipeDependencyGraph46add_dependency_edges_and_validate_dependenciess_000Bc_
FN:109,_RNCNCNvMNtNtCs1lk7uXtNODC_4bake7project5graphNtB6_21RecipeDependencyGraph46add_dependency_edges_and_validate_dependenciess_00Ba_
FN:75,_RNCNvMNtNtCs1lk7uXtNODC_4bake7project5graphNtB4_21RecipeDependencyGraph31add_recipe_nodes_from_cookbooks0B8_
FN:76,_RNCNvMNtNtCs1lk7uXtNODC_4bake7project5graphNtB4_21RecipeDependencyGraph31add_recipe_nodes_from_cookbookss_0B8_
FN:163,_RNCNvMNtNtCs1lk7uXtNODC_4bake7project5graphNtB4_21RecipeDependencyGraph31ensure_no_circular_dependencies0B8_
FN:94,_RNCNvMNtNtCs1lk7uXtNODC_4bake7project5graphNtB4_21RecipeDependencyGraph46add_dependency_edges_and_validate_dependencies0B8_
FN:95,_RNCNvMNtNtCs1lk7uXtNODC_4bake7project5graphNtB4_21RecipeDependencyGraph46add_dependency_edges_and_validate_dependenciess_0B8_
FNDA:19,_RNCNCNCNvMNtNtCs4EkGjsAKdp2_4bake7project5graphNtB8_21RecipeDependencyGraph46add_dependency_edges_and_validate_dependenciess_000Bc_
FNDA:17,_RNCNCNvMNtNtCs4EkGjsAKdp2_4bake7project5graphNtB6_21RecipeDependencyGraph46add_dependency_edges_and_validate_dependenciess_00Ba_
FNDA:27,_RNCNvMNtNtCs4EkGjsAKdp2_4bake7project5graphNtB4_21RecipeDependencyGraph31add_recipe_nodes_from_cookbooks0B8_
FNDA:57,_RNCNvMNtNtCs4EkGjsAKdp2_4bake7project5graphNtB4_21RecipeDependencyGraph31add_recipe_nodes_from_cookbookss_0B8_
FNDA:2,_RNCNvMNtNtCs4EkGjsAKdp2_4bake7project5graphNtB4_21RecipeDependencyGraph31ensure_no_circular_dependencies0B8_
FNDA:27,_RNCNvMNtNtCs4EkGjsAKdp2_4bake7project5graphNtB4_21RecipeDependencyGraph46add_dependency_edges_and_validate_dependencies0B8_
FNDA:57,_RNCNvMNtNtCs4EkGjsAKdp2_4bake7project5graphNtB4_21RecipeDependencyGraph46add_dependency_edges_and_validate_dependenciess_0B8_
FNDA:16,_RNvMNtNtCs4EkGjsAKdp2_4bake7project5graphNtB2_21RecipeDependencyGraph16clear_graph_data
FNDA:16,_RNvMNtNtCs4EkGjsAKdp2_4bake7project5graphNtB2_21RecipeDependencyGraph23populate_from_cookbooks
FNDA:20,_RNvMNtNtCs4EkGjsAKdp2_4bake7project5graphNtB2_21RecipeDependencyGraph24get_all_dependencies_for
FNDA:16,_RNvMNtNtCs4EkGjsAKdp2_4bake7project5graphNtB2_21RecipeDependencyGraph31add_recipe_nodes_from_cookbooks
FNDA:15,_RNvMNtNtCs4EkGjsAKdp2_4bake7project5graphNtB2_21RecipeDependencyGraph31ensure_no_circular_dependencies
FNDA:8,_RNvMNtNtCs4EkGjsAKdp2_4bake7project5graphNtB2_21RecipeDependencyGraph31get_execution_order_for_targets
FNDA:8,_RNvMNtNtCs4EkGjsAKdp2_4bake7project5graphNtB2_21RecipeDependencyGraph38get_execution_plan_for_initial_targets
FNDA:7,_RNvMNtNtCs4EkGjsAKdp2_4bake7project5graphNtB2_21RecipeDependencyGraph3new
FNDA:16,_RNvMNtNtCs4EkGjsAKdp2_4bake7project5graphNtB2_21RecipeDependencyGraph46add_dependency_edges_and_validate_dependencies
FNDA:18,_RNCNvNtNtNtCs1lk7uXtNODC_4bake7project5graph5tests13create_recipe0B9_
FNDA:6,_RNCNvNtNtNtCs1lk7uXtNODC_4bake7project5graph5testss_27test_exec_order_complex_dag0B9_
FNDA:4,_RNCNvNtNtNtCs1lk7uXtNODC_4bake7project5graph5testss_34test_exec_order_dag_multiple_paths0B9_
FNDA:4,_RNCNvNtNtNtCs1lk7uXtNODC_4bake7project5graph5testss_34test_exec_order_diamond_dependency0B9_
FNDA:2,_RNCNvNtNtNtCs1lk7uXtNODC_4bake7project5graph5testss_47test_populate_from_cookbooks_multiple_cookbooks0B9_
FNDA:1,_RNCNvNtNtNtCs1lk7uXtNODC_4bake7project5graph5testss_49test_get_all_dependencies_for_direct_dependencies0B9_
FNDA:5,_RNCNvNtNtNtCs1lk7uXtNODC_4bake7project5graph5testss_50test_exec_order_disconnected_components_in_targets0B9_
FNDA:2,_RNCNvNtNtNtCs1lk7uXtNODC_4bake7project5graph5testss_53test_get_all_dependencies_for_transitive_dependencies0B9_
FNDA:1,_RNCNvNtNtNtCs1lk7uXtNODC_4bake7project5graph5testss_53test_get_all_dependencies_for_transitive_dependenciess_0B9_
FNDA:3,_RNCNvNtNtNtCs1lk7uXtNODC_4bake7project5graph5testss_63test_get_all_dependencies_for_multiple_paths_to_same_dependency0B9_
FNDA:21,_RNvNtNtNtCs1lk7uXtNODC_4bake7project5graph5tests13create_recipe
FNDA:11,_RNvNtNtNtCs1lk7uXtNODC_4bake7project5graph5tests15create_cookbook
FNDA:23,_RNvNtNtNtCs1lk7uXtNODC_4bake7project5graph5tests33create_graph_for_exec_order_tests
FNDA:9,_RNvNtNtNtCs1lk7uXtNODC_4bake7project5graph5tests38setup_single_cookbook_test_environment
FNDA:1,_RNvNtNtNtCs1lk7uXtNODC_4bake7project5graph5testss_23test_new_graph_is_empty
FNDA:1,_RNvNtNtNtCs1lk7uXtNODC_4bake7project5graph5testss_27test_exec_order_complex_dag
FNDA:1,_RNvNtNtNtCs1lk7uXtNODC_4bake7project5graph5testss_28test_exec_order_cycle_direct
FNDA:1,_RNvNtNtNtCs1lk7uXtNODC_4bake7project5graph5testss_29test_exec_order_empty_targets
FNDA:1,_RNvNtNtNtCs1lk7uXtNODC_4bake7project5graph5testss_30test_exec_order_cycle_indirect
FNDA:1,_RNvNtNtNtCs1lk7uXtNODC_4bake7project5graph5testss_31test_plan_empty_initial_targets
FNDA:1,_RNvNtNtNtCs1lk7uXtNODC_4bake7project5graph5testss_34test_exec_order_dag_multiple_paths
FNDA:1,_RNvNtNtNtCs1lk7uXtNODC_4bake7project5graph5testss_34test_exec_order_diamond_dependency
FNDA:1,_RNvNtNtNtCs1lk7uXtNODC_4bake7project5graph5testss_34test_populate_detects_direct_cycle
FNDA:1,_RNvNtNtNtCs1lk7uXtNODC_4bake7project5graph5testss_35test_populate_self_dependency_cycle
FNDA:1,_RNvNtNtNtCs1lk7uXtNODC_4bake7project5graph5testss_36test_populate_detects_indirect_cycle
FNDA:1,_RNvNtNtNtCs1lk7uXtNODC_4bake7project5graph5testss_37test_exec_order_single_target_no_deps
FNDA:1,_RNvNtNtNtCs1lk7uXtNODC_4bake7project5graph5testss_37test_plan_initial_target_not_in_graph
FNDA:1,_RNvNtNtNtCs1lk7uXtNODC_4bake7project5graph5testss_39test_exec_order_target_fqn_not_in_graph
FNDA:1,_RNvNtNtNtCs1lk7uXtNODC_4bake7project5graph5testss_39test_plan_single_initial_target_no_deps
FNDA:1,_RNvNtNtNtCs1lk7uXtNODC_4bake7project5graph5testss_39test_populate_from_cookbooks_simple_dag
FNDA:1,_RNvNtNtNtCs1lk7uXtNODC_4bake7project5graph5testss_40test_exec_order_longer_linear_dependency
FNDA:1,_RNvNtNtNtCs1lk7uXtNODC_4bake7project5graph5testss_40test_exec_order_simple_linear_dependency
FNDA:1,_RNvNtNtNtCs1lk7uXtNODC_4bake7project5graph5testss_40test_populate_detects_missing_dependency
FNDA:1,_RNvNtNtNtCs1lk7uXtNODC_4bake7project5graph5testss_41test_exec_order_self_cycle_within_targets
FNDA:1,_RNvNtNtNtCs1lk7uXtNODC_4bake7project5graph5testss_41test_plan_initial_target_with_direct_deps
FNDA:1,_RNvNtNtNtCs1lk7uXtNODC_4bake7project5graph5testss_43test_exec_order_targets_are_subset_of_graph
FNDA:1,_RNvNtNtNtCs1lk7uXtNODC_4bake7project5graph5testss_45test_get_all_dependencies_for_no_dependencies
FNDA:1,_RNvNtNtNtCs1lk7uXtNODC_4bake7project5graph5testss_45test_plan_initial_target_with_transitive_deps
FNDA:1,_RNvNtNtNtCs1lk7uXtNODC_4bake7project5graph5testss_46test_plan_dependency_cycle_from_initial_target
FNDA:1,_RNvNtNtNtCs1lk7uXtNODC_4bake7project5graph5testss_46test_plan_multiple_initial_targets_shared_deps
FNDA:1,_RNvNtNtNtCs1lk7uXtNODC_4bake7project5graph5testss_47test_populate_from_cookbooks_multiple_cookbooks
FNDA:1,_RNvNtNtNtCs1lk7uXtNODC_4bake7project5graph5testss_49test_get_all_dependencies_for_direct_dependencies
FNDA:1,_RNvNtNtNtCs1lk7uXtNODC_4bake7project5graph5testss_49test_get_all_dependencies_for_non_existent_recipe
FNDA:1,_RNvNtNtNtCs1lk7uXtNODC_4bake7project5graph5testss_50test_exec_order_disconnected_components_in_targets
FNDA:1,_RNvNtNtNtCs1lk7uXtNODC_4bake7project5graph5testss_51test_exec_order_multiple_targets_no_deps_among_them
FNDA:1,_RNvNtNtNtCs1lk7uXtNODC_4bake7project5graph5testss_53test_get_all_dependencies_for_transitive_dependencies
FNDA:1,_RNvNtNtNtCs1lk7uXtNODC_4bake7project5graph5testss_55test_plan_initial_target_is_part_of_cycle_but_not_entry
FNDA:1,_RNvNtNtNtCs1lk7uXtNODC_4bake7project5graph5testss_60test_plan_multiple_initial_targets_independent_and_dependent
FNDA:1,_RNvNtNtNtCs1lk7uXtNODC_4bake7project5graph5testss_63test_get_all_dependencies_for_multiple_paths_to_same_dependency
FNDA:1,_RNvNtNtNtCs1lk7uXtNODC_4bake7project5graph5testss_64test_plan_initial_target_with_dependency_not_in_graph_indirectly
FNDA:54,_RNvMNtNtCs1lk7uXtNODC_4bake7project5graphNtB2_21RecipeDependencyGraph16clear_graph_data
FNDA:54,_RNvMNtNtCs1lk7uXtNODC_4bake7project5graphNtB2_21RecipeDependencyGraph23populate_from_cookbooks
FNDA:84,_RNvMNtNtCs1lk7uXtNODC_4bake7project5graphNtB2_21RecipeDependencyGraph24get_all_dependencies_for
FNDA:54,_RNvMNtNtCs1lk7uXtNODC_4bake7project5graphNtB2_21RecipeDependencyGraph31add_recipe_nodes_from_cookbooks
FNDA:52,_RNvMNtNtCs1lk7uXtNODC_4bake7project5graphNtB2_21RecipeDependencyGraph31ensure_no_circular_dependencies
FNDA:35,_RNvMNtNtCs1lk7uXtNODC_4bake7project5graphNtB2_21RecipeDependencyGraph31get_execution_order_for_targets
FNDA:22,_RNvMNtNtCs1lk7uXtNODC_4bake7project5graphNtB2_21RecipeDependencyGraph38get_execution_plan_for_initial_targets
FNDA:80,_RNvMNtNtCs1lk7uXtNODC_4bake7project5graphNtB2_21RecipeDependencyGraph3new
FNDA:54,_RNvMNtNtCs1lk7uXtNODC_4bake7project5graphNtB2_21RecipeDependencyGraph46add_dependency_edges_and_validate_dependencies
FNDA:376,_RNCNCNCNvMNtNtCs1lk7uXtNODC_4bake7project5graphNtB8_21RecipeDependencyGraph46add_dependency_edges_and_validate_dependenciess_000Bc_
FNDA:339,_RNCNCNvMNtNtCs1lk7uXtNODC_4bake7project5graphNtB6_21RecipeDependencyGraph46add_dependency_edges_and_validate_dependenciess_00Ba_
FNDA:171,_RNCNvMNtNtCs1lk7uXtNODC_4bake7project5graphNtB4_21RecipeDependencyGraph31add_recipe_nodes_from_cookbooks0B8_
FNDA:575,_RNCNvMNtNtCs1lk7uXtNODC_4bake7project5graphNtB4_21RecipeDependencyGraph31add_recipe_nodes_from_cookbookss_0B8_
FNDA:8,_RNCNvMNtNtCs1lk7uXtNODC_4bake7project5graphNtB4_21RecipeDependencyGraph31ensure_no_circular_dependencies0B8_
FNDA:171,_RNCNvMNtNtCs1lk7uXtNODC_4bake7project5graphNtB4_21RecipeDependencyGraph46add_dependency_edges_and_validate_dependencies0B8_
FNDA:575,_RNCNvMNtNtCs1lk7uXtNODC_4bake7project5graphNtB4_21RecipeDependencyGraph46add_dependency_edges_and_validate_dependenciess_0B8_
FNF:66
FNH:66
DA:29,87
DA:30,87
DA:31,87
DA:53,70
DA:54,70
DA:55,70
DA:56,70
DA:57,70
DA:58,70
DA:59,70
DA:60,67
DA:61,62
DA:62,70
DA:65,70
DA:66,70
DA:67,70
DA:68,70
DA:72,70
DA:73,70
DA:74,70
DA:75,198
DA:76,632
DA:77,632
DA:78,632
DA:79,632
DA:80,632
DA:81,70
DA:88,70
DA:89,70
DA:90,70
DA:91,70
DA:92,70
DA:93,70
DA:94,198
DA:95,632
DA:96,632
DA:97,632
DA:98,632
DA:102,0
DA:103,0
DA:107,632
DA:109,356
DA:110,356
DA:111,395
DA:112,395
DA:114,388
DA:115,388
DA:116,388
DA:119,7
DA:120,7
DA:121,7
DA:122,7
DA:123,7
DA:124,7
DA:126,395
DA:127,356
DA:128,356
DA:130,632
DA:131,70
DA:133,70
DA:134,3
DA:135,3
DA:136,3
DA:138,67
DA:139,67
DA:140,70
DA:147,67
DA:148,67
DA:149,5
DA:150,5
DA:151,10
DA:154,5
DA:155,1
DA:156,1
DA:157,1
DA:158,1
DA:159,1
DA:161,5
DA:162,5
DA:163,10
DA:164,5
DA:165,5
DA:166,5
DA:167,0
DA:170,5
DA:173,0
DA:175,5
DA:176,5
DA:177,5
DA:180,62
DA:181,62
DA:182,67
DA:198,104
DA:199,104
DA:200,104
DA:201,103
DA:204,103
DA:206,193
DA:207,90
DA:208,90
DA:209,1
DA:210,104
DA:211,104
DA:239,30
DA:240,30
DA:241,30
DA:242,30
DA:243,30
DA:244,2
DA:245,28
DA:247,28
DA:250,124
DA:251,97
DA:252,1
DA:253,1
DA:256,96
DA:257,96
DA:258,96
DA:259,96
DA:263,27
DA:264,30
DA:289,43
DA:290,43
DA:291,43
DA:292,43
DA:293,43
DA:294,1
DA:295,42
DA:299,42
DA:301,42
DA:303,199
DA:304,158
DA:305,1
DA:306,1
DA:309,157
DA:310,157
DA:311,157
DA:321,197
DA:322,156
DA:332,156
DA:333,156
DA:334,156
DA:336,111
DA:337,111
DA:338,90
DA:339,90
DA:340,90
DA:341,90
DA:342,90
DA:343,90
DA:344,90
DA:345,90
DA:346,90
DA:347,90
DA:348,90
DA:349,90
DA:350,90
DA:355,41
DA:356,197
DA:357,156
DA:358,72
DA:359,72
DA:360,84
DA:363,41
DA:364,41
DA:366,125
DA:367,84
DA:369,84
DA:371,84
DA:372,84
DA:374,228
DA:375,144
DA:379,144
DA:380,222
DA:383,78
DA:384,78
DA:385,78
DA:386,72
DA:387,72
DA:388,72
DA:389,72
DA:391,0
DA:393,0
DA:397,41
DA:398,5
DA:399,17
DA:400,12
DA:401,12
DA:402,12
DA:404,5
DA:405,5
DA:406,5
DA:407,5
DA:408,5
DA:410,5
DA:413,36
DA:415,36
DA:416,43
DA:427,9
DA:428,9
DA:429,9
DA:430,9
DA:431,9
DA:433,9
DA:434,9
DA:435,9
DA:436,9
DA:437,9
DA:438,9
DA:439,9
DA:451,21
DA:453,21
DA:456,21
DA:457,21
DA:458,21
DA:459,21
DA:461,21
DA:473,11
DA:474,11
DA:475,36
DA:476,25
DA:477,25
DA:478,11
DA:479,11
DA:480,11
DA:481,11
DA:482,11
DA:483,11
DA:484,11
DA:485,11
DA:486,11
DA:487,11
DA:491,1
DA:492,1
DA:493,1
DA:494,1
DA:496,0
DA:498,1
DA:499,1
DA:501,0
DA:503,1
DA:504,1
DA:505,0
DA:507,1
DA:512,1
DA:513,1
DA:514,1
DA:515,1
DA:516,1
DA:518,1
DA:520,1
DA:521,1
DA:523,1
DA:524,1
DA:526,0
DA:528,1
DA:529,1
DA:531,0
DA:534,1
DA:535,1
DA:536,1
DA:538,1
DA:539,1
DA:540,1
DA:542,1
DA:543,1
DA:544,0
DA:546,1
DA:547,1
DA:548,0
DA:550,1
DA:551,1
DA:552,0
DA:554,1
DA:558,1
DA:559,1
DA:560,1
DA:562,1
DA:563,1
DA:564,1
DA:565,0
DA:567,1
DA:568,1
DA:569,1
DA:570,0
DA:572,1
DA:573,1
DA:574,0
DA:576,1
DA:580,1
DA:581,1
DA:582,1
DA:583,1
DA:585,1
DA:587,1
DA:588,1
DA:589,1
DA:590,0
DA:592,1
DA:593,1
DA:594,1
DA:595,0
DA:598,1
DA:599,1
DA:600,0
DA:602,1
DA:603,1
DA:604,0
DA:606,1
DA:610,1
DA:611,1
DA:612,1
DA:613,1
DA:614,1
DA:616,1
DA:618,1
DA:619,1
DA:620,1
DA:621,0
DA:623,1
DA:624,1
DA:625,1
DA:626,0
DA:628,1
DA:629,1
DA:630,0
DA:632,1
DA:633,1
DA:634,0
DA:636,1
DA:637,1
DA:638,0
DA:640,1
DA:644,1
DA:645,1
DA:646,1
DA:648,1
DA:649,1
DA:650,1
DA:651,0
DA:653,1
DA:654,1
DA:655,1
DA:656,0
DA:658,1
DA:659,1
DA:660,0
DA:662,1
DA:667,1
DA:668,1
DA:669,1
DA:671,1
DA:673,1
DA:674,1
DA:675,1
DA:679,1
DA:680,1
DA:681,1
DA:682,1
DA:684,1
DA:686,1
DA:688,1
DA:689,1
DA:690,1
DA:691,1
DA:693,0
DA:696,1
DA:697,1
DA:698,1
DA:703,1
DA:704,1
DA:705,1
DA:706,1
DA:707,1
DA:708,1
DA:710,1
DA:712,1
DA:714,1
DA:715,1
DA:716,1
DA:717,2
DA:718,1
DA:719,1
DA:721,0
DA:724,1
DA:725,1
DA:726,1
DA:727,1
DA:729,0
DA:731,1
DA:736,1
DA:737,1
DA:739,1
DA:740,1
DA:741,1
DA:742,0
DA:744,1
DA:749,1
DA:750,1
DA:751,1
DA:752,1
DA:753,1
DA:754,1
DA:756,1
DA:758,1
DA:760,1
DA:761,1
DA:762,1
DA:763,1
DA:764,3
DA:765,1
DA:766,1
DA:768,0
DA:770,1
DA:771,1
DA:773,0
DA:775,1
DA:780,1
DA:781,1
DA:782,1
DA:785,1
DA:786,1
DA:787,1
DA:788,1
DA:789,1
DA:790,1
DA:791,1
DA:792,1
DA:793,1
DA:794,1
DA:795,1
DA:796,1
DA:797,1
DA:798,1
DA:799,1
DA:800,1
DA:801,1
DA:804,1
DA:805,1
DA:806,1
DA:807,1
DA:808,1
DA:809,1
DA:810,1
DA:811,1
DA:812,1
DA:813,1
DA:814,1
DA:815,1
DA:816,1
DA:817,1
DA:818,1
DA:819,1
DA:820,1
DA:822,1
DA:823,1
DA:824,1
DA:825,0
DA:828,1
DA:829,1
DA:831,0
DA:834,1
DA:836,1
DA:837,1
DA:838,1
DA:839,1
DA:841,1
DA:842,1
DA:843,1
DA:845,1
DA:846,1
DA:847,0
DA:849,1
DA:850,1
DA:851,0
DA:855,1
DA:856,1
DA:857,2
DA:858,1
DA:860,0
DA:862,1
DA:866,23
DA:867,23
DA:868,23
DA:869,23
DA:870,23
DA:871,87
DA:872,64
DA:873,64
DA:874,64
DA:875,64
DA:876,64
DA:877,65
DA:878,42
DA:879,42
DA:880,42
DA:881,42
DA:882,23
DA:883,23
DA:886,1
DA:887,1
DA:888,1
DA:889,1
DA:890,1
DA:891,1
DA:894,1
DA:895,1
DA:896,1
DA:897,1
DA:898,1
DA:899,1
DA:902,1
DA:903,1
DA:904,1
DA:905,1
DA:906,1
DA:907,1
DA:908,1
DA:911,1
DA:912,1
DA:913,1
DA:914,1
DA:915,1
DA:917,1
DA:920,1
DA:922,1
DA:923,1
DA:924,1
DA:925,1
DA:926,1
DA:929,1
DA:931,1
DA:932,1
DA:933,1
DA:934,1
DA:935,1
DA:936,1
DA:937,1
DA:938,1
DA:940,1
DA:941,1
DA:942,1
DA:943,1
DA:946,1
DA:949,1
DA:952,1
DA:953,1
DA:954,1
DA:956,4
DA:957,1
DA:959,1
DA:960,1
DA:961,1
DA:962,1
DA:963,1
DA:966,1
DA:972,1
DA:973,1
DA:974,1
DA:976,1
DA:977,1
DA:978,6
DA:979,1
DA:980,1
DA:982,1
DA:983,1
DA:984,1
DA:985,1
DA:986,1
DA:987,1
DA:990,1
DA:991,1
DA:992,1
DA:993,1
DA:994,1
DA:995,1
DA:996,1
DA:997,1
DA:998,1
DA:999,1
DA:1000,1
DA:1001,1
DA:1002,1
DA:1003,1
DA:1006,1
DA:1008,1
DA:1009,1
DA:1010,1
DA:1011,1
DA:1012,1
DA:1013,1
DA:1015,1
DA:1016,1
DA:1017,1
DA:1020,1
DA:1022,1
DA:1023,1
DA:1024,1
DA:1026,1
DA:1027,1
DA:1028,1
DA:1029,1
DA:1030,1
DA:1031,1
DA:1032,1
DA:1033,1
DA:1034,1
DA:1035,1
DA:1036,1
DA:1037,1
DA:1040,1
DA:1042,1
DA:1043,1
DA:1044,1
DA:1045,1
DA:1046,1
DA:1047,1
DA:1048,1
DA:1049,1
DA:1052,1
DA:1056,1
DA:1057,1
DA:1058,1
DA:1060,1
DA:1061,1
DA:1062,5
DA:1063,1
DA:1064,1
DA:1066,1
DA:1067,1
DA:1068,1
DA:1069,1
DA:1071,1
DA:1072,1
DA:1075,1
DA:1079,1
DA:1080,1
DA:1081,1
DA:1086,1
DA:1087,1
DA:1088,1
DA:1089,1
DA:1090,1
DA:1091,1
DA:1093,1
DA:1094,1
DA:1095,1
DA:1096,1
DA:1104,1
DA:1105,1
DA:1106,1
DA:1108,1
DA:1115,1
DA:1116,1
DA:1117,1
DA:1119,1
DA:1121,1
DA:1124,1
DA:1126,1
DA:1127,1
DA:1128,1
DA:1130,4
DA:1131,1
DA:1133,1
DA:1134,1
DA:1135,1
DA:1136,1
DA:1137,1
DA:1142,1
DA:1143,1
DA:1144,1
DA:1145,1
DA:1146,1
DA:1147,1
DA:1148,1
DA:1149,1
DA:1152,1
DA:1153,1
DA:1154,1
DA:1155,1
DA:1156,1
DA:1157,1
DA:1158,1
DA:1159,1
DA:1162,1
DA:1166,1
DA:1167,1
DA:1168,1
DA:1169,1
DA:1170,1
DA:1171,1
DA:1172,1
DA:1173,1
DA:1176,1
DA:1180,1
DA:1181,1
DA:1182,1
DA:1183,1
DA:1184,1
DA:1185,1
DA:1186,1
DA:1188,1
DA:1189,1
DA:1190,1
DA:1191,1
DA:1194,1
DA:1197,1
DA:1201,1
DA:1202,1
DA:1203,1
DA:1205,1
DA:1206,1
DA:1207,1
DA:1208,1
DA:1209,1
DA:1210,1
DA:1211,1
DA:1212,1
DA:1213,1
DA:1216,1
DA:1220,1
DA:1221,1
DA:1222,1
DA:1224,1
DA:1225,1
DA:1226,1
DA:1227,1
DA:1228,1
DA:1229,1
DA:1230,1
DA:1231,1
DA:1232,1
DA:1233,1
DA:1234,1
DA:1236,1
DA:1237,1
DA:1240,1
DA:1241,1
DA:1242,1
DA:1243,1
DA:1244,1
DA:1245,1
DA:1246,1
DA:1247,1
DA:1248,1
DA:1249,1
DA:1250,1
DA:1253,1
DA:1257,1
DA:1258,1
DA:1259,1
DA:1261,1
DA:1262,1
DA:1263,1
DA:1264,1
DA:1265,1
DA:1266,1
DA:1269,1
DA:1273,1
DA:1274,1
DA:1275,1
DA:1277,1
DA:1278,1
DA:1279,1
DA:1280,1
DA:1281,1
DA:1282,1
DA:1285,1
DA:1301,1
DA:1302,1
DA:1303,1
DA:1304,1
DA:1305,1
DA:1307,1
DA:1312,1
DA:1313,1
DA:1314,1
DA:1315,1
DA:1318,1
DA:1323,1
BRF:0
BRH:0
LF:796
LH:756
end_of_record
SF:/Users/theoribeiro/Dev/tools/bake/src/project/hashing.rs
FN:76,_RNvMNtNtCs4EkGjsAKdp2_4bake7project7hashingNtB2_12RecipeHasher20into_memoized_hashes
FN:56,_RNvMNtNtCs4EkGjsAKdp2_4bake7project7hashingNtB2_12RecipeHasher25collect_dependency_hashes
FN:28,_RNvMNtNtCs4EkGjsAKdp2_4bake7project7hashingNtB2_12RecipeHasher3new
FN:36,_RNvMNtNtCs4EkGjsAKdp2_4bake7project7hashingNtB2_12RecipeHasher8hash_for
FN:9,_RNvNtNtCs4EkGjsAKdp2_4bake7project7hashing11blake3_hash
FN:14,_RNvNtNtCs4EkGjsAKdp2_4bake7project7hashing21compute_combined_hash
FN:62,_RNCNvMNtNtCs4EkGjsAKdp2_4bake7project7hashingNtB4_12RecipeHasher25collect_dependency_hashes0B8_
FN:68,_RNCNvMNtNtCs4EkGjsAKdp2_4bake7project7hashingNtB4_12RecipeHasher25collect_dependency_hashess_0B8_
FN:44,_RNCNvMNtNtCs4EkGjsAKdp2_4bake7project7hashingNtB4_12RecipeHasher8hash_for0B8_
FN:109,_RNvNtNtNtCs1lk7uXtNODC_4bake7project7hashing5testss_26test_compute_combined_hash
FN:86,_RNvNtNtNtCs1lk7uXtNODC_4bake7project7hashing5testss_27test_blake3_hash_consistent
FN:102,_RNvNtNtNtCs1lk7uXtNODC_4bake7project7hashing5testss_29test_blake3_hash_empty_string
FN:95,_RNvNtNtNtCs1lk7uXtNODC_4bake7project7hashing5testss_33test_blake3_hash_different_inputs
FN:150,_RNvNtNtNtCs1lk7uXtNODC_4bake7project7hashing5testss_41test_compute_combined_hash_different_deps
FN:131,_RNvNtNtNtCs1lk7uXtNODC_4bake7project7hashing5testss_42test_compute_combined_hash_with_empty_deps
FN:159,_RNvNtNtNtCs1lk7uXtNODC_4bake7project7hashing5testss_45test_compute_combined_hash_order_independence
FN:120,_RNvNtNtNtCs1lk7uXtNODC_4bake7project7hashing5testss_45test_compute_combined_hash_sorts_dependencies
FN:141,_RNvNtNtNtCs1lk7uXtNODC_4bake7project7hashing5testss_46test_compute_combined_hash_different_self_hash
FN:174,_RNvNtNtNtCs1lk7uXtNODC_4bake7project7hashing5testss_49test_compute_combined_hash_duplicate_dependencies
FN:76,_RNvMNtNtCs1lk7uXtNODC_4bake7project7hashingNtB2_12RecipeHasher20into_memoized_hashes
FN:56,_RNvMNtNtCs1lk7uXtNODC_4bake7project7hashingNtB2_12RecipeHasher25collect_dependency_hashes
FN:28,_RNvMNtNtCs1lk7uXtNODC_4bake7project7hashingNtB2_12RecipeHasher3new
FN:36,_RNvMNtNtCs1lk7uXtNODC_4bake7project7hashingNtB2_12RecipeHasher8hash_for
FN:9,_RNvNtNtCs1lk7uXtNODC_4bake7project7hashing11blake3_hash
FN:14,_RNvNtNtCs1lk7uXtNODC_4bake7project7hashing21compute_combined_hash
FN:62,_RNCNvMNtNtCs1lk7uXtNODC_4bake7project7hashingNtB4_12RecipeHasher25collect_dependency_hashes0B8_
FN:68,_RNCNvMNtNtCs1lk7uXtNODC_4bake7project7hashingNtB4_12RecipeHasher25collect_dependency_hashess_0B8_
FN:44,_RNCNvMNtNtCs1lk7uXtNODC_4bake7project7hashingNtB4_12RecipeHasher8hash_for0B8_
FNDA:11,_RNvMNtNtCs4EkGjsAKdp2_4bake7project7hashingNtB2_12RecipeHasher20into_memoized_hashes
FNDA:31,_RNvMNtNtCs4EkGjsAKdp2_4bake7project7hashingNtB2_12RecipeHasher25collect_dependency_hashes
FNDA:11,_RNvMNtNtCs4EkGjsAKdp2_4bake7project7hashingNtB2_12RecipeHasher3new
FNDA:34,_RNvMNtNtCs4EkGjsAKdp2_4bake7project7hashingNtB2_12RecipeHasher8hash_for
FNDA:31,_RNvNtNtCs4EkGjsAKdp2_4bake7project7hashing11blake3_hash
FNDA:31,_RNvNtNtCs4EkGjsAKdp2_4bake7project7hashing21compute_combined_hash
FNDA:0,_RNCNvMNtNtCs4EkGjsAKdp2_4bake7project7hashingNtB4_12RecipeHasher25collect_dependency_hashes0B8_
FNDA:3,_RNCNvMNtNtCs4EkGjsAKdp2_4bake7project7hashingNtB4_12RecipeHasher25collect_dependency_hashess_0B8_
FNDA:0,_RNCNvMNtNtCs4EkGjsAKdp2_4bake7project7hashingNtB4_12RecipeHasher8hash_for0B8_
FNDA:1,_RNvNtNtNtCs1lk7uXtNODC_4bake7project7hashing5testss_26test_compute_combined_hash
FNDA:1,_RNvNtNtNtCs1lk7uXtNODC_4bake7project7hashing5testss_27test_blake3_hash_consistent
FNDA:1,_RNvNtNtNtCs1lk7uXtNODC_4bake7project7hashing5testss_29test_blake3_hash_empty_string
FNDA:1,_RNvNtNtNtCs1lk7uXtNODC_4bake7project7hashing5testss_33test_blake3_hash_different_inputs
FNDA:1,_RNvNtNtNtCs1lk7uXtNODC_4bake7project7hashing5testss_41test_compute_combined_hash_different_deps
FNDA:1,_RNvNtNtNtCs1lk7uXtNODC_4bake7project7hashing5testss_42test_compute_combined_hash_with_empty_deps
FNDA:1,_RNvNtNtNtCs1lk7uXtNODC_4bake7project7hashing5testss_45test_compute_combined_hash_order_independence
FNDA:1,_RNvNtNtNtCs1lk7uXtNODC_4bake7project7hashing5testss_45test_compute_combined_hash_sorts_dependencies
FNDA:1,_RNvNtNtNtCs1lk7uXtNODC_4bake7project7hashing5testss_46test_compute_combined_hash_different_self_hash
FNDA:1,_RNvNtNtNtCs1lk7uXtNODC_4bake7project7hashing5testss_49test_compute_combined_hash_duplicate_dependencies
FNDA:9,_RNvMNtNtCs1lk7uXtNODC_4bake7project7hashingNtB2_12RecipeHasher20into_memoized_hashes
FNDA:0,_RNvMNtNtCs1lk7uXtNODC_4bake7project7hashingNtB2_12RecipeHasher25collect_dependency_hashes
FNDA:9,_RNvMNtNtCs1lk7uXtNODC_4bake7project7hashingNtB2_12RecipeHasher3new
FNDA:0,_RNvMNtNtCs1lk7uXtNODC_4bake7project7hashingNtB2_12RecipeHasher8hash_for
FNDA:18,_RNvNtNtCs1lk7uXtNODC_4bake7project7hashing11blake3_hash
FNDA:12,_RNvNtNtCs1lk7uXtNODC_4bake7project7hashing21compute_combined_hash
FNDA:0,_RNCNvMNtNtCs1lk7uXtNODC_4bake7project7hashingNtB4_12RecipeHasher25collect_dependency_hashes0B8_
FNDA:0,_RNCNvMNtNtCs1lk7uXtNODC_4bake7project7hashingNtB4_12RecipeHasher25collect_dependency_hashess_0B8_
FNDA:0,_RNCNvMNtNtCs1lk7uXtNODC_4bake7project7hashingNtB4_12RecipeHasher8hash_for0B8_
FNF:19
FNH:17
DA:9,49
DA:10,49
DA:11,49
DA:14,43
DA:15,43
DA:16,43
DA:17,43
DA:18,43
DA:28,20
DA:29,20
DA:30,20
DA:31,20
DA:32,20
DA:33,20
DA:36,34
DA:37,34
DA:38,3
DA:39,31
DA:41,31
DA:42,31
DA:43,31
DA:44,31
DA:46,31
DA:47,31
DA:48,31
DA:50,31
DA:51,31
DA:52,31
DA:53,34
DA:56,31
DA:57,31
DA:58,31
DA:59,31
DA:60,31
DA:61,31
DA:62,31
DA:64,31
DA:65,31
DA:66,31
DA:67,31
DA:68,31
DA:69,3
DA:70,3
DA:71,3
DA:72,31
DA:73,31
DA:76,20
DA:77,20
DA:78,20
DA:86,1
DA:87,1
DA:88,1
DA:89,1
DA:90,1
DA:91,1
DA:92,1
DA:95,1
DA:96,1
DA:97,1
DA:98,1
DA:99,1
DA:102,1
DA:103,1
DA:104,1
DA:105,1
DA:106,1
DA:109,1
DA:110,1
DA:111,1
DA:113,1
DA:114,1
DA:115,1
DA:116,1
DA:117,1
DA:120,1
DA:121,1
DA:122,1
DA:123,1
DA:125,1
DA:126,1
DA:127,1
DA:128,1
DA:131,1
DA:132,1
DA:133,1
DA:135,1
DA:136,1
DA:137,1
DA:138,1
DA:141,1
DA:142,1
DA:144,1
DA:145,1
DA:146,1
DA:147,1
DA:150,1
DA:151,1
DA:153,1
DA:154,1
DA:155,1
DA:156,1
DA:159,1
DA:160,1
DA:161,1
DA:162,1
DA:163,1
DA:165,1
DA:166,1
DA:167,1
DA:169,1
DA:170,1
DA:171,1
DA:174,1
DA:175,1
DA:176,1
DA:178,1
DA:179,1
DA:180,1
DA:181,1
BRF:0
BRH:0
LF:122
LH:120
end_of_record
SF:/Users/theoribeiro/Dev/tools/bake/src/project/mod.rs
FN:382,_RNvMNtCs4EkGjsAKdp2_4bake7projectNtB2_11BakeProject16validate_recipes
FN:102,_RNvMNtCs4EkGjsAKdp2_4bake7projectNtB2_11BakeProject17get_recipe_by_fqn
FN:704,_RNvMNtCs4EkGjsAKdp2_4bake7projectNtB2_11BakeProject19get_recipe_log_path
FN:710,_RNvMNtCs4EkGjsAKdp2_4bake7projectNtB2_11BakeProject20get_project_log_path
FN:408,_RNvMNtCs4EkGjsAKdp2_4bake7projectNtB2_11BakeProject20validate_min_version
FN:721,_RNvMNtCs4EkGjsAKdp2_4bake7projectNtB2_11BakeProject21get_project_bake_path
FN:204,_RNvMNtCs4EkGjsAKdp2_4bake7projectNtB2_11BakeProject22load_project_cookbooks
FN:220,_RNvMNtCs4EkGjsAKdp2_4bake7projectNtB2_11BakeProject22load_project_templates
FN:567,_RNvMNtCs4EkGjsAKdp2_4bake7projectNtB2_11BakeProject23find_config_file_in_dir
FN:523,_RNvMNtCs4EkGjsAKdp2_4bake7projectNtB2_11BakeProject24create_project_bake_dirs
FN:134,_RNvMNtCs4EkGjsAKdp2_4bake7projectNtB2_11BakeProject24find_and_load_config_str
FN:269,_RNvMNtCs4EkGjsAKdp2_4bake7projectNtB2_11BakeProject24resolve_template_recipes
FN:744,_RNvMNtCs4EkGjsAKdp2_4bake7projectNtB2_11BakeProject25filter_recipes_by_pattern
FN:628,_RNvMNtCs4EkGjsAKdp2_4bake7projectNtB2_11BakeProject25get_recipes_for_execution
FN:398,_RNvMNtCs4EkGjsAKdp2_4bake7projectNtB2_11BakeProject25populate_dependency_graph
FN:715,_RNvMNtCs4EkGjsAKdp2_4bake7projectNtB2_11BakeProject26get_project_templates_path
FN:164,_RNvMNtCs4EkGjsAKdp2_4bake7projectNtB2_11BakeProject26parse_and_validate_project
FN:185,_RNvMNtCs4EkGjsAKdp2_4bake7projectNtB2_11BakeProject28initialize_project_variables
FN:456,_RNvMNtCs4EkGjsAKdp2_4bake7projectNtB2_11BakeProject30check_deprecated_configuration
FN:479,_RNvMNtCs4EkGjsAKdp2_4bake7projectNtB2_11BakeProject4from
FN:243,_RNCNCNvMNtCs4EkGjsAKdp2_4bake7projectNtB6_11BakeProject22load_project_templates00B8_
FN:106,_RNCNvMNtCs4EkGjsAKdp2_4bake7projectNtB4_11BakeProject17get_recipe_by_fqn0B6_
FN:416,_RNCNvMNtCs4EkGjsAKdp2_4bake7projectNtB4_11BakeProject20validate_min_version0B6_
FN:420,_RNCNvMNtCs4EkGjsAKdp2_4bake7projectNtB4_11BakeProject20validate_min_versions_0B6_
FN:236,_RNCNvMNtCs4EkGjsAKdp2_4bake7projectNtB4_11BakeProject22load_project_templates0B6_
FN:356,_RNCNvMNtCs4EkGjsAKdp2_4bake7projectNtB4_11BakeProject24resolve_template_recipes0B6_
FN:769,_RNCNvMNtCs4EkGjsAKdp2_4bake7projectNtB4_11BakeProject25filter_recipes_by_pattern0B6_
FN:795,_RNCNvMNtCs4EkGjsAKdp2_4bake7projectNtB4_11BakeProject25filter_recipes_by_patterns0_0B6_
FN:800,_RNCNvMNtCs4EkGjsAKdp2_4bake7projectNtB4_11BakeProject25filter_recipes_by_patterns1_0B6_
FN:781,_RNCNvMNtCs4EkGjsAKdp2_4bake7projectNtB4_11BakeProject25filter_recipes_by_patterns_0B6_
FN:861,_RNCNvNtNtCs1lk7uXtNODC_4bake7project5tests16validate_project0B7_
FN:382,_RNvMNtCs1lk7uXtNODC_4bake7projectNtB2_11BakeProject16validate_recipes
FN:102,_RNvMNtCs1lk7uXtNODC_4bake7projectNtB2_11BakeProject17get_recipe_by_fqn
FN:704,_RNvMNtCs1lk7uXtNODC_4bake7projectNtB2_11BakeProject19get_recipe_log_path
FN:710,_RNvMNtCs1lk7uXtNODC_4bake7projectNtB2_11BakeProject20get_project_log_path
FN:408,_RNvMNtCs1lk7uXtNODC_4bake7projectNtB2_11BakeProject20validate_min_version
FN:721,_RNvMNtCs1lk7uXtNODC_4bake7projectNtB2_11BakeProject21get_project_bake_path
FN:204,_RNvMNtCs1lk7uXtNODC_4bake7projectNtB2_11BakeProject22load_project_cookbooks
FN:220,_RNvMNtCs1lk7uXtNODC_4bake7projectNtB2_11BakeProject22load_project_templates
FN:567,_RNvMNtCs1lk7uXtNODC_4bake7projectNtB2_11BakeProject23find_config_file_in_dir
FN:523,_RNvMNtCs1lk7uXtNODC_4bake7projectNtB2_11BakeProject24create_project_bake_dirs
FN:134,_RNvMNtCs1lk7uXtNODC_4bake7projectNtB2_11BakeProject24find_and_load_config_str
FN:269,_RNvMNtCs1lk7uXtNODC_4bake7projectNtB2_11BakeProject24resolve_template_recipes
FN:744,_RNvMNtCs1lk7uXtNODC_4bake7projectNtB2_11BakeProject25filter_recipes_by_pattern
FN:628,_RNvMNtCs1lk7uXtNODC_4bake7projectNtB2_11BakeProject25get_recipes_for_execution
FN:398,_RNvMNtCs1lk7uXtNODC_4bake7projectNtB2_11BakeProject25populate_dependency_graph
FN:715,_RNvMNtCs1lk7uXtNODC_4bake7projectNtB2_11BakeProject26get_project_templates_path
FN:164,_RNvMNtCs1lk7uXtNODC_4bake7projectNtB2_11BakeProject26parse_and_validate_project
FN:185,_RNvMNtCs1lk7uXtNODC_4bake7projectNtB2_11BakeProject28initialize_project_variables
FN:456,_RNvMNtCs1lk7uXtNODC_4bake7projectNtB2_11BakeProject30check_deprecated_configuration
FN:479,_RNvMNtCs1lk7uXtNODC_4bake7projectNtB2_11BakeProject4from
FN:243,_RNCNCNvMNtCs1lk7uXtNODC_4bake7projectNtB6_11BakeProject22load_project_templates00B8_
FN:106,_RNCNvMNtCs1lk7uXtNODC_4bake7projectNtB4_11BakeProject17get_recipe_by_fqn0B6_
FN:416,_RNCNvMNtCs1lk7uXtNODC_4bake7projectNtB4_11BakeProject20validate_min_version0B6_
FN:420,_RNCNvMNtCs1lk7uXtNODC_4bake7projectNtB4_11BakeProject20validate_min_versions_0B6_
FN:236,_RNCNvMNtCs1lk7uXtNODC_4bake7projectNtB4_11BakeProject22load_project_templates0B6_
FN:356,_RNCNvMNtCs1lk7uXtNODC_4bake7projectNtB4_11BakeProject24resolve_template_recipes0B6_
FN:769,_RNCNvMNtCs1lk7uXtNODC_4bake7projectNtB4_11BakeProject25filter_recipes_by_pattern0B6_
FN:795,_RNCNvMNtCs1lk7uXtNODC_4bake7projectNtB4_11BakeProject25filter_recipes_by_patterns0_0B6_
FN:800,_RNCNvMNtCs1lk7uXtNODC_4bake7projectNtB4_11BakeProject25filter_recipes_by_patterns1_0B6_
FN:781,_RNCNvMNtCs1lk7uXtNODC_4bake7projectNtB4_11BakeProject25filter_recipes_by_patterns_0B6_
FN:844,_RNvNtNtCs1lk7uXtNODC_4bake7project5tests11config_path
FN:892,_RNvNtNtCs1lk7uXtNODC_4bake7project5tests11read_config
FN:922,_RNvNtNtCs1lk7uXtNODC_4bake7project5tests16get_test_project
FN:848,_RNvNtNtCs1lk7uXtNODC_4bake7project5tests16validate_project
FN:979,_RNvNtNtCs1lk7uXtNODC_4bake7project5tests37test_filter_recipes_by_pattern_errors
FN:1110,_RNvNtNtCs1lk7uXtNODC_4bake7project5tests37test_get_recipes_for_execution_errors
FN:992,_RNvNtNtCs1lk7uXtNODC_4bake7project5tests38test_filter_recipes_by_pattern_success
FN:1002,_RNvNtNtCs1lk7uXtNODC_4bake7project5tests41test_filter_recipes_by_pattern_no_matches
FN:1011,_RNvNtNtCs1lk7uXtNODC_4bake7project5tests41test_filter_recipes_by_pattern_validation
FN:1073,_RNvNtNtCs1lk7uXtNODC_4bake7project5tests44test_get_recipes_for_execution_with_patterns
FN:937,_RNvNtNtCs1lk7uXtNODC_4bake7project5tests45test_filter_recipes_by_pattern_exact_matching
FN:1083,_RNvNtNtCs1lk7uXtNODC_4bake7project5tests45test_get_recipes_for_execution_exact_matching
FN:1101,_RNvNtNtCs1lk7uXtNODC_4bake7project5tests45test_get_recipes_for_execution_regex_patterns
FN:966,_RNvNtNtCs1lk7uXtNODC_4bake7project5tests47test_filter_recipes_by_pattern_exact_no_matches
FN:1092,_RNvNtNtCs1lk7uXtNODC_4bake7project5tests47test_get_recipes_for_execution_exact_no_matches
FN:903,_RNvNtNtCs1lk7uXtNODC_4bake7project5testss_18invalid_permission
FNDA:7,_RNvMNtCs4EkGjsAKdp2_4bake7projectNtB2_11BakeProject16validate_recipes
FNDA:53,_RNvMNtCs4EkGjsAKdp2_4bake7projectNtB2_11BakeProject17get_recipe_by_fqn
FNDA:21,_RNvMNtCs4EkGjsAKdp2_4bake7projectNtB2_11BakeProject19get_recipe_log_path
FNDA:29,_RNvMNtCs4EkGjsAKdp2_4bake7projectNtB2_11BakeProject20get_project_log_path
FNDA:7,_RNvMNtCs4EkGjsAKdp2_4bake7projectNtB2_11BakeProject20validate_min_version
FNDA:57,_RNvMNtCs4EkGjsAKdp2_4bake7projectNtB2_11BakeProject21get_project_bake_path
FNDA:7,_RNvMNtCs4EkGjsAKdp2_4bake7projectNtB2_11BakeProject22load_project_cookbooks
FNDA:7,_RNvMNtCs4EkGjsAKdp2_4bake7projectNtB2_11BakeProject22load_project_templates
FNDA:13,_RNvMNtCs4EkGjsAKdp2_4bake7projectNtB2_11BakeProject23find_config_file_in_dir
FNDA:8,_RNvMNtCs4EkGjsAKdp2_4bake7projectNtB2_11BakeProject24create_project_bake_dirs
FNDA:9,_RNvMNtCs4EkGjsAKdp2_4bake7projectNtB2_11BakeProject24find_and_load_config_str
FNDA:7,_RNvMNtCs4EkGjsAKdp2_4bake7projectNtB2_11BakeProject24resolve_template_recipes
FNDA:5,_RNvMNtCs4EkGjsAKdp2_4bake7projectNtB2_11BakeProject25filter_recipes_by_pattern
FNDA:8,_RNvMNtCs4EkGjsAKdp2_4bake7projectNtB2_11BakeProject25get_recipes_for_execution
FNDA:7,_RNvMNtCs4EkGjsAKdp2_4bake7projectNtB2_11BakeProject25populate_dependency_graph
FNDA:15,_RNvMNtCs4EkGjsAKdp2_4bake7projectNtB2_11BakeProject26get_project_templates_path
FNDA:7,_RNvMNtCs4EkGjsAKdp2_4bake7projectNtB2_11BakeProject26parse_and_validate_project
FNDA:7,_RNvMNtCs4EkGjsAKdp2_4bake7projectNtB2_11BakeProject28initialize_project_variables
FNDA:1,_RNvMNtCs4EkGjsAKdp2_4bake7projectNtB2_11BakeProject30check_deprecated_configuration
FNDA:9,_RNvMNtCs4EkGjsAKdp2_4bake7projectNtB2_11BakeProject4from
FNDA:3,_RNCNCNvMNtCs4EkGjsAKdp2_4bake7projectNtB6_11BakeProject22load_project_templates00B8_
FNDA:53,_RNCNvMNtCs4EkGjsAKdp2_4bake7projectNtB4_11BakeProject17get_recipe_by_fqn0B6_
FNDA:3,_RNCNvMNtCs4EkGjsAKdp2_4bake7projectNtB4_11BakeProject20validate_min_version0B6_
FNDA:3,_RNCNvMNtCs4EkGjsAKdp2_4bake7projectNtB4_11BakeProject20validate_min_versions_0B6_
FNDA:5,_RNCNvMNtCs4EkGjsAKdp2_4bake7projectNtB4_11BakeProject22load_project_templates0B6_
FNDA:3,_RNCNvMNtCs4EkGjsAKdp2_4bake7projectNtB4_11BakeProject24resolve_template_recipes0B6_
FNDA:0,_RNCNvMNtCs4EkGjsAKdp2_4bake7projectNtB4_11BakeProject25filter_recipes_by_pattern0B6_
FNDA:0,_RNCNvMNtCs4EkGjsAKdp2_4bake7projectNtB4_11BakeProject25filter_recipes_by_patterns0_0B6_
FNDA:0,_RNCNvMNtCs4EkGjsAKdp2_4bake7projectNtB4_11BakeProject25filter_recipes_by_patterns1_0B6_
FNDA:0,_RNCNvMNtCs4EkGjsAKdp2_4bake7projectNtB4_11BakeProject25filter_recipes_by_patterns_0B6_
FNDA:42,_RNCNvNtNtCs1lk7uXtNODC_4bake7project5tests16validate_project0B7_
FNDA:44,_RNvMNtCs1lk7uXtNODC_4bake7projectNtB2_11BakeProject16validate_recipes
FNDA:70,_RNvMNtCs1lk7uXtNODC_4bake7projectNtB2_11BakeProject17get_recipe_by_fqn
FNDA:0,_RNvMNtCs1lk7uXtNODC_4bake7projectNtB2_11BakeProject19get_recipe_log_path
FNDA:0,_RNvMNtCs1lk7uXtNODC_4bake7projectNtB2_11BakeProject20get_project_log_path
FNDA:45,_RNvMNtCs1lk7uXtNODC_4bake7projectNtB2_11BakeProject20validate_min_version
FNDA:48,_RNvMNtCs1lk7uXtNODC_4bake7projectNtB2_11BakeProject21get_project_bake_path
FNDA:45,_RNvMNtCs1lk7uXtNODC_4bake7projectNtB2_11BakeProject22load_project_cookbooks
FNDA:44,_RNvMNtCs1lk7uXtNODC_4bake7projectNtB2_11BakeProject22load_project_templates
FNDA:47,_RNvMNtCs1lk7uXtNODC_4bake7projectNtB2_11BakeProject23find_config_file_in_dir
FNDA:0,_RNvMNtCs1lk7uXtNODC_4bake7projectNtB2_11BakeProject24create_project_bake_dirs
FNDA:48,_RNvMNtCs1lk7uXtNODC_4bake7projectNtB2_11BakeProject24find_and_load_config_str
FNDA:44,_RNvMNtCs1lk7uXtNODC_4bake7projectNtB2_11BakeProject24resolve_template_recipes
FNDA:36,_RNvMNtCs1lk7uXtNODC_4bake7projectNtB2_11BakeProject25filter_recipes_by_pattern
FNDA:16,_RNvMNtCs1lk7uXtNODC_4bake7projectNtB2_11BakeProject25get_recipes_for_execution
FNDA:44,_RNvMNtCs1lk7uXtNODC_4bake7projectNtB2_11BakeProject25populate_dependency_graph
FNDA:44,_RNvMNtCs1lk7uXtNODC_4bake7projectNtB2_11BakeProject26get_project_templates_path
FNDA:45,_RNvMNtCs1lk7uXtNODC_4bake7projectNtB2_11BakeProject26parse_and_validate_project
FNDA:45,_RNvMNtCs1lk7uXtNODC_4bake7projectNtB2_11BakeProject28initialize_project_variables
FNDA:0,_RNvMNtCs1lk7uXtNODC_4bake7projectNtB2_11BakeProject30check_deprecated_configuration
FNDA:48,_RNvMNtCs1lk7uXtNODC_4bake7projectNtB2_11BakeProject4from
FNDA:78,_RNCNCNvMNtCs1lk7uXtNODC_4bake7projectNtB6_11BakeProject22load_project_templates00B8_
FNDA:70,_RNCNvMNtCs1lk7uXtNODC_4bake7projectNtB4_11BakeProject17get_recipe_by_fqn0B6_
FNDA:0,_RNCNvMNtCs1lk7uXtNODC_4bake7projectNtB4_11BakeProject20validate_min_version0B6_
FNDA:0,_RNCNvMNtCs1lk7uXtNODC_4bake7projectNtB4_11BakeProject20validate_min_versions_0B6_
FNDA:117,_RNCNvMNtCs1lk7uXtNODC_4bake7projectNtB4_11BakeProject22load_project_templates0B6_
FNDA:117,_RNCNvMNtCs1lk7uXtNODC_4bake7projectNtB4_11BakeProject24resolve_template_recipes0B6_
FNDA:1,_RNCNvMNtCs1lk7uXtNODC_4bake7projectNtB4_11BakeProject25filter_recipes_by_pattern0B6_
FNDA:168,_RNCNvMNtCs1lk7uXtNODC_4bake7projectNtB4_11BakeProject25filter_recipes_by_patterns0_0B6_
FNDA:168,_RNCNvMNtCs1lk7uXtNODC_4bake7projectNtB4_11BakeProject25filter_recipes_by_patterns1_0B6_
FNDA:1,_RNCNvMNtCs1lk7uXtNODC_4bake7projectNtB4_11BakeProject25filter_recipes_by_patterns_0B6_
FNDA:46,_RNvNtNtCs1lk7uXtNODC_4bake7project5tests11config_path
FNDA:8,_RNvNtNtCs1lk7uXtNODC_4bake7project5tests11read_config
FNDA:36,_RNvNtNtCs1lk7uXtNODC_4bake7project5tests16get_test_project
FNDA:3,_RNvNtNtCs1lk7uXtNODC_4bake7project5tests16validate_project
FNDA:4,_RNvNtNtCs1lk7uXtNODC_4bake7project5tests37test_filter_recipes_by_pattern_errors
FNDA:2,_RNvNtNtCs1lk7uXtNODC_4bake7project5tests37test_get_recipes_for_execution_errors
FNDA:6,_RNvNtNtCs1lk7uXtNODC_4bake7project5tests38test_filter_recipes_by_pattern_success
FNDA:4,_RNvNtNtCs1lk7uXtNODC_4bake7project5tests41test_filter_recipes_by_pattern_no_matches
FNDA:3,_RNvNtNtCs1lk7uXtNODC_4bake7project5tests41test_filter_recipes_by_pattern_validation
FNDA:3,_RNvNtNtCs1lk7uXtNODC_4bake7project5tests44test_get_recipes_for_execution_with_patterns
FNDA:4,_RNvNtNtCs1lk7uXtNODC_4bake7project5tests45test_filter_recipes_by_pattern_exact_matching
FNDA:3,_RNvNtNtCs1lk7uXtNODC_4bake7project5tests45test_get_recipes_for_execution_exact_matching
FNDA:2,_RNvNtNtCs1lk7uXtNODC_4bake7project5tests45test_get_recipes_for_execution_regex_patterns
FNDA:3,_RNvNtNtCs1lk7uXtNODC_4bake7project5tests47test_filter_recipes_by_pattern_exact_no_matches
FNDA:2,_RNvNtNtCs1lk7uXtNODC_4bake7project5tests47test_get_recipes_for_execution_exact_no_matches
FNDA:1,_RNvNtNtCs1lk7uXtNODC_4bake7project5testss_18invalid_permission
FNF:47
FNH:47
DA:102,123
DA:103,123
DA:104,123
DA:105,123
DA:106,123
DA:108,0
DA:110,123
DA:134,57
DA:135,57
DA:136,1
DA:137,1
DA:138,1
DA:140,56
DA:141,55
DA:142,1
DA:143,1
DA:145,0
DA:146,0
DA:147,0
DA:151,54
DA:152,52
DA:153,2
DA:154,2
DA:155,2
DA:156,2
DA:161,57
DA:164,52
DA:165,52
DA:166,52
DA:167,52
DA:168,0
DA:169,52
DA:170,52
DA:171,52
DA:172,52
DA:173,52
DA:174,52
DA:176,0
DA:177,0
DA:178,0
DA:182,52
DA:185,52
DA:186,52
DA:187,52
DA:188,52
DA:189,52
DA:190,52
DA:191,52
DA:192,52
DA:193,52
DA:194,52
DA:197,52
DA:199,52
DA:200,52
DA:201,52
DA:204,52
DA:205,52
DA:206,52
DA:207,52
DA:208,52
DA:209,52
DA:210,52
DA:211,52
DA:212,52
DA:213,52
DA:215,52
DA:216,51
DA:217,52
DA:220,51
DA:223,51
DA:226,51
DA:227,10
DA:228,10
DA:229,41
DA:231,41
DA:232,41
DA:233,41
DA:235,41
DA:236,122
DA:237,122
DA:238,122
DA:239,122
DA:240,41
DA:241,81
DA:243,81
DA:244,81
DA:245,0
DA:249,81
DA:250,81
DA:251,81
DA:252,0
DA:255,0
DA:258,0
DA:259,0
DA:260,0
DA:262,122
DA:263,41
DA:265,41
DA:266,51
DA:269,51
DA:270,51
DA:271,51
DA:272,51
DA:274,51
DA:275,51
DA:276,51
DA:277,51
DA:278,51
DA:281,170
DA:283,170
DA:284,170
DA:285,170
DA:286,170
DA:287,170
DA:288,170
DA:289,170
DA:292,572
DA:294,572
DA:295,452
DA:296,120
DA:298,120
DA:301,120
DA:302,120
DA:304,0
DA:305,0
DA:309,0
DA:315,120
DA:316,120
DA:317,120
DA:318,120
DA:319,120
DA:320,120
DA:321,120
DA:322,0
DA:325,120
DA:328,120
DA:329,120
DA:330,120
DA:331,120
DA:333,120
DA:334,0
DA:335,0
DA:336,120
DA:339,120
DA:340,0
DA:341,120
DA:344,120
DA:345,0
DA:346,120
DA:349,120
DA:350,120
DA:351,120
DA:354,120
DA:355,120
DA:356,120
DA:359,120
DA:360,0
DA:361,120
DA:364,120
DA:365,0
DA:366,120
DA:369,120
DA:370,40
DA:371,80
DA:374,120
DA:378,51
DA:379,51
DA:382,51
DA:383,221
DA:384,742
DA:385,572
DA:386,0
DA:387,0
DA:391,572
DA:394,51
DA:395,51
DA:398,51
DA:399,51
DA:400,51
DA:401,51
DA:402,47
DA:403,51
DA:408,52
DA:409,52
DA:411,52
DA:412,1
DA:414,1
DA:415,1
DA:416,3
DA:417,1
DA:418,1
DA:419,1
DA:420,3
DA:421,1
DA:424,1
DA:425,1
DA:427,0
DA:428,0
DA:429,0
DA:432,0
DA:433,0
DA:434,0
DA:435,0
DA:436,0
DA:437,1
DA:438,1
DA:439,1
DA:440,1
DA:441,1
DA:443,0
DA:444,51
DA:445,51
DA:446,51
DA:447,51
DA:448,51
DA:449,51
DA:451,52
DA:452,52
DA:456,1
DA:457,1
DA:468,1
DA:469,0
DA:470,0
DA:471,0
DA:472,0
DA:473,0
DA:474,0
DA:476,1
DA:477,1
DA:479,57
DA:480,57
DA:481,57
DA:482,57
DA:483,57
DA:484,57
DA:486,57
DA:489,52
DA:492,52
DA:495,52
DA:498,52
DA:501,51
DA:504,51
DA:507,51
DA:510,51
DA:512,47
DA:513,57
DA:523,8
DA:525,8
DA:526,0
DA:527,0
DA:528,0
DA:531,8
DA:533,8
DA:534,0
DA:535,0
DA:536,0
DA:539,8
DA:542,8
DA:543,0
DA:544,0
DA:545,0
DA:548,8
DA:550,8
DA:551,8
DA:567,60
DA:568,60
DA:569,60
DA:571,60
DA:572,51
DA:573,9
DA:574,2
DA:576,7
DA:579,7
DA:580,7
DA:582,5
DA:583,2
DA:584,0
DA:586,2
DA:587,2
DA:588,2
DA:591,60
DA:628,24
DA:629,24
DA:630,24
DA:631,24
DA:632,24
DA:633,24
DA:634,17
DA:637,7
DA:638,7
DA:639,7
DA:640,7
DA:641,7
DA:644,22
DA:648,2
DA:649,20
DA:652,20
DA:653,20
DA:654,20
DA:660,20
DA:661,1
DA:662,19
DA:664,19
DA:666,64
DA:667,45
DA:668,137
DA:669,92
DA:670,92
DA:671,0
DA:672,0
DA:673,0
DA:683,45
DA:684,45
DA:685,45
DA:688,19
DA:689,24
DA:704,21
DA:705,21
DA:706,21
DA:707,21
DA:710,29
DA:711,29
DA:712,29
DA:715,59
DA:716,59
DA:717,59
DA:721,105
DA:722,105
DA:723,105
DA:744,41
DA:745,41
DA:746,41
DA:747,41
DA:748,41
DA:750,41
DA:751,4
DA:752,4
DA:753,4
DA:754,4
DA:755,4
DA:758,37
DA:760,37
DA:762,37
DA:764,37
DA:766,20
DA:767,7
DA:769,13
DA:770,1
DA:771,1
DA:775,1
DA:778,19
DA:779,6
DA:781,13
DA:782,1
DA:783,1
DA:787,1
DA:791,252
DA:792,252
DA:793,252
DA:794,252
DA:795,252
DA:796,252
DA:798,252
DA:799,252
DA:800,252
DA:801,252
DA:803,252
DA:804,59
DA:805,193
DA:806,0
DA:810,187
DA:811,187
DA:812,187
DA:813,32
DA:815,155
DA:818,187
DA:819,36
DA:821,151
DA:824,187
DA:825,25
DA:826,162
DA:827,0
DA:831,35
DA:832,41
DA:844,46
DA:845,46
DA:846,46
DA:848,3
DA:849,3
DA:850,3
DA:851,3
DA:852,3
DA:853,3
DA:857,3
DA:858,3
DA:859,3
DA:860,3
DA:861,42
DA:862,3
DA:864,3
DA:865,3
DA:866,3
DA:868,3
DA:869,3
DA:870,3
DA:872,3
DA:873,3
DA:874,3
DA:876,3
DA:877,3
DA:878,3
DA:882,3
DA:892,8
DA:893,8
DA:894,8
DA:895,8
DA:896,8
DA:897,8
DA:900,8
DA:903,1
DA:904,1
DA:905,1
DA:906,1
DA:907,1
DA:908,1
DA:909,1
DA:910,1
DA:911,1
DA:912,1
DA:915,1
DA:916,1
DA:917,1
DA:918,1
DA:922,36
DA:923,36
DA:924,36
DA:925,36
DA:926,36
DA:927,36
DA:930,36
DA:931,36
DA:937,4
DA:938,4
DA:939,4
DA:940,4
DA:943,13
DA:944,9
DA:945,9
DA:947,9
DA:948,6
DA:950,0
DA:952,3
DA:953,9
DA:954,5
DA:956,0
DA:958,4
DA:959,0
DA:961,4
DA:966,3
DA:967,3
DA:968,3
DA:969,3
DA:970,3
DA:971,0
DA:973,3
DA:979,4
DA:980,4
DA:981,4
DA:982,4
DA:983,4
DA:984,4
DA:992,6
DA:993,6
DA:994,6
DA:995,6
DA:996,6
DA:1002,4
DA:1003,4
DA:1004,4
DA:1005,4
DA:1006,4
DA:1011,3
DA:1012,3
DA:1013,3
DA:1014,3
DA:1016,2
DA:1017,3
DA:1019,1
DA:1020,6
DA:1021,5
DA:1023,5
DA:1024,5
DA:1027,2
DA:1029,1
DA:1030,5
DA:1031,4
DA:1033,0
DA:1034,0
DA:1035,0
DA:1038,4
DA:1042,1
DA:1044,1
DA:1048,0
DA:1050,0
DA:1051,0
DA:1052,0
DA:1053,0
DA:1054,0
DA:1055,0
DA:1056,0
DA:1057,0
DA:1058,0
DA:1059,0
DA:1060,0
DA:1064,0
DA:1068,3
DA:1073,3
DA:1074,3
DA:1075,3
DA:1076,3
DA:1077,3
DA:1078,3
DA:1083,3
DA:1084,3
DA:1085,3
DA:1086,3
DA:1087,3
DA:1088,3
DA:1092,2
DA:1093,2
DA:1094,2
DA:1095,2
DA:1096,2
DA:1097,2
DA:1101,2
DA:1102,2
DA:1103,2
DA:1104,2
DA:1105,2
DA:1106,2
DA:1110,2
DA:1111,2
DA:1112,2
DA:1113,2
DA:1114,2
DA:1115,2
BRF:0
BRH:0
LF:559
LH:483
end_of_record
SF:/Users/theoribeiro/Dev/tools/bake/src/project/recipe.rs
FN:133,_RNCNCNvMNtNtCs4EkGjsAKdp2_4bake7project6recipeNtB6_6Recipe13get_self_hashs0_00Ba_
FN:100,_RNCNvMNtNtCs4EkGjsAKdp2_4bake7project6recipeNtB4_6Recipe13get_self_hash0B8_
FN:129,_RNCNvMNtNtCs4EkGjsAKdp2_4bake7project6recipeNtB4_6Recipe13get_self_hashs0_0B8_
FN:121,_RNCNvMNtNtCs4EkGjsAKdp2_4bake7project6recipeNtB4_6Recipe13get_self_hashs_0B8_
FN:189,_RNCNvMNtNtCs4EkGjsAKdp2_4bake7project6recipeNtB4_6Recipe13walk_and_hash0B8_
FN:210,_RNCNvMNtNtCs4EkGjsAKdp2_4bake7project6recipeNtB4_6Recipe13walk_and_hashs_0B8_
FN:336,_RNCNvMNtNtCs4EkGjsAKdp2_4bake7project6recipeNtB4_6Recipe26find_walk_root_for_pattern0B8_
FN:344,_RNCNvMNtNtCs4EkGjsAKdp2_4bake7project6recipeNtB4_6Recipe26find_walk_root_for_patterns_0B8_
FN:282,_RNCNvMNtNtCs4EkGjsAKdp2_4bake7project6recipeNtB4_6Recipe29resolve_patterns_to_canonical0B8_
FN:93,_RNvMNtNtCs4EkGjsAKdp2_4bake7project6recipeNtB2_6Recipe13get_self_hash
FN:158,_RNvMNtNtCs4EkGjsAKdp2_4bake7project6recipeNtB2_6Recipe13walk_and_hash
FN:321,_RNvMNtNtCs4EkGjsAKdp2_4bake7project6recipeNtB2_6Recipe26find_walk_root_for_pattern
FN:303,_RNvMNtNtCs4EkGjsAKdp2_4bake7project6recipeNtB2_6Recipe27group_patterns_by_walk_root
FN:253,_RNvMNtNtCs4EkGjsAKdp2_4bake7project6recipeNtB2_6Recipe29resolve_patterns_to_canonical
FN:88,_RNvMNtNtCs4EkGjsAKdp2_4bake7project6recipeNtB2_6Recipe9full_name
FN:133,_RNCNCNvMNtNtCs1lk7uXtNODC_4bake7project6recipeNtB6_6Recipe13get_self_hashs0_00Ba_
FN:100,_RNCNvMNtNtCs1lk7uXtNODC_4bake7project6recipeNtB4_6Recipe13get_self_hash0B8_
FN:129,_RNCNvMNtNtCs1lk7uXtNODC_4bake7project6recipeNtB4_6Recipe13get_self_hashs0_0B8_
FN:121,_RNCNvMNtNtCs1lk7uXtNODC_4bake7project6recipeNtB4_6Recipe13get_self_hashs_0B8_
FN:189,_RNCNvMNtNtCs1lk7uXtNODC_4bake7project6recipeNtB4_6Recipe13walk_and_hash0B8_
FN:210,_RNCNvMNtNtCs1lk7uXtNODC_4bake7project6recipeNtB4_6Recipe13walk_and_hashs_0B8_
FN:336,_RNCNvMNtNtCs1lk7uXtNODC_4bake7project6recipeNtB4_6Recipe26find_walk_root_for_pattern0B8_
FN:344,_RNCNvMNtNtCs1lk7uXtNODC_4bake7project6recipeNtB4_6Recipe26find_walk_root_for_patterns_0B8_
FN:282,_RNCNvMNtNtCs1lk7uXtNODC_4bake7project6recipeNtB4_6Recipe29resolve_patterns_to_canonical0B8_
FN:355,_RNvNtNtNtCs1lk7uXtNODC_4bake7project6recipe5tests11config_path
FN:412,_RNvNtNtNtCs1lk7uXtNODC_4bake7project6recipe5testss_27test_relative_glob_matching
FN:450,_RNvNtNtNtCs1lk7uXtNODC_4bake7project6recipe5testss_35test_complex_relative_path_matching
FN:360,_RNvNtNtNtCs1lk7uXtNODC_4bake7project6recipe5testss_9test_hash
FN:93,_RNvMNtNtCs1lk7uXtNODC_4bake7project6recipeNtB2_6Recipe13get_self_hash
FN:158,_RNvMNtNtCs1lk7uXtNODC_4bake7project6recipeNtB2_6Recipe13walk_and_hash
FN:321,_RNvMNtNtCs1lk7uXtNODC_4bake7project6recipeNtB2_6Recipe26find_walk_root_for_pattern
FN:303,_RNvMNtNtCs1lk7uXtNODC_4bake7project6recipeNtB2_6Recipe27group_patterns_by_walk_root
FN:253,_RNvMNtNtCs1lk7uXtNODC_4bake7project6recipeNtB2_6Recipe29resolve_patterns_to_canonical
FN:88,_RNvMNtNtCs1lk7uXtNODC_4bake7project6recipeNtB2_6Recipe9full_name
FNDA:0,_RNCNCNvMNtNtCs4EkGjsAKdp2_4bake7project6recipeNtB6_6Recipe13get_self_hashs0_00Ba_
FNDA:0,_RNCNvMNtNtCs4EkGjsAKdp2_4bake7project6recipeNtB4_6Recipe13get_self_hash0B8_
FNDA:0,_RNCNvMNtNtCs4EkGjsAKdp2_4bake7project6recipeNtB4_6Recipe13get_self_hashs0_0B8_
FNDA:0,_RNCNvMNtNtCs4EkGjsAKdp2_4bake7project6recipeNtB4_6Recipe13get_self_hashs_0B8_
FNDA:0,_RNCNvMNtNtCs4EkGjsAKdp2_4bake7project6recipeNtB4_6Recipe13walk_and_hash0B8_
FNDA:0,_RNCNvMNtNtCs4EkGjsAKdp2_4bake7project6recipeNtB4_6Recipe13walk_and_hashs_0B8_
FNDA:0,_RNCNvMNtNtCs4EkGjsAKdp2_4bake7project6recipeNtB4_6Recipe26find_walk_root_for_pattern0B8_
FNDA:0,_RNCNvMNtNtCs4EkGjsAKdp2_4bake7project6recipeNtB4_6Recipe26find_walk_root_for_patterns_0B8_
FNDA:0,_RNCNvMNtNtCs4EkGjsAKdp2_4bake7project6recipeNtB4_6Recipe29resolve_patterns_to_canonical0B8_
FNDA:31,_RNvMNtNtCs4EkGjsAKdp2_4bake7project6recipeNtB2_6Recipe13get_self_hash
FNDA:0,_RNvMNtNtCs4EkGjsAKdp2_4bake7project6recipeNtB2_6Recipe13walk_and_hash
FNDA:0,_RNvMNtNtCs4EkGjsAKdp2_4bake7project6recipeNtB2_6Recipe26find_walk_root_for_pattern
FNDA:0,_RNvMNtNtCs4EkGjsAKdp2_4bake7project6recipeNtB2_6Recipe27group_patterns_by_walk_root
FNDA:0,_RNvMNtNtCs4EkGjsAKdp2_4bake7project6recipeNtB2_6Recipe29resolve_patterns_to_canonical
FNDA:190,_RNvMNtNtCs4EkGjsAKdp2_4bake7project6recipeNtB2_6Recipe9full_name
FNDA:0,_RNCNCNvMNtNtCs1lk7uXtNODC_4bake7project6recipeNtB6_6Recipe13get_self_hashs0_00Ba_
FNDA:0,_RNCNvMNtNtCs1lk7uXtNODC_4bake7project6recipeNtB4_6Recipe13get_self_hash0B8_
FNDA:2,_RNCNvMNtNtCs1lk7uXtNODC_4bake7project6recipeNtB4_6Recipe13get_self_hashs0_0B8_
FNDA:6,_RNCNvMNtNtCs1lk7uXtNODC_4bake7project6recipeNtB4_6Recipe13get_self_hashs_0B8_
FNDA:0,_RNCNvMNtNtCs1lk7uXtNODC_4bake7project6recipeNtB4_6Recipe13walk_and_hash0B8_
FNDA:0,_RNCNvMNtNtCs1lk7uXtNODC_4bake7project6recipeNtB4_6Recipe13walk_and_hashs_0B8_
FNDA:0,_RNCNvMNtNtCs1lk7uXtNODC_4bake7project6recipeNtB4_6Recipe26find_walk_root_for_pattern0B8_
FNDA:0,_RNCNvMNtNtCs1lk7uXtNODC_4bake7project6recipeNtB4_6Recipe26find_walk_root_for_patterns_0B8_
FNDA:3,_RNCNvMNtNtCs1lk7uXtNODC_4bake7project6recipeNtB4_6Recipe29resolve_patterns_to_canonical0B8_
FNDA:6,_RNvNtNtNtCs1lk7uXtNODC_4bake7project6recipe5tests11config_path
FNDA:1,_RNvNtNtNtCs1lk7uXtNODC_4bake7project6recipe5testss_27test_relative_glob_matching
FNDA:1,_RNvNtNtNtCs1lk7uXtNODC_4bake7project6recipe5testss_35test_complex_relative_path_matching
FNDA:1,_RNvNtNtNtCs1lk7uXtNODC_4bake7project6recipe5testss_9test_hash
FNDA:12,_RNvMNtNtCs1lk7uXtNODC_4bake7project6recipeNtB2_6Recipe13get_self_hash
FNDA:20,_RNvMNtNtCs1lk7uXtNODC_4bake7project6recipeNtB2_6Recipe13walk_and_hash
FNDA:20,_RNvMNtNtCs1lk7uXtNODC_4bake7project6recipeNtB2_6Recipe26find_walk_root_for_pattern
FNDA:9,_RNvMNtNtCs1lk7uXtNODC_4bake7project6recipeNtB2_6Recipe27group_patterns_by_walk_root
FNDA:20,_RNvMNtNtCs1lk7uXtNODC_4bake7project6recipeNtB2_6Recipe29resolve_patterns_to_canonical
FNDA:1208,_RNvMNtNtCs1lk7uXtNODC_4bake7project6recipeNtB2_6Recipe9full_name
FNF:19
FNH:13
DA:88,1398
DA:89,1398
DA:90,1398
DA:93,43
DA:94,43
DA:95,43
DA:96,43
DA:97,43
DA:98,43
DA:99,43
DA:100,43
DA:101,43
DA:103,43
DA:104,12
DA:106,9
DA:107,9
DA:110,29
DA:111,20
DA:112,20
DA:114,3
DA:115,31
DA:118,43
DA:119,43
DA:120,43
DA:121,43
DA:122,43
DA:126,43
DA:127,43
DA:128,43
DA:129,43
DA:130,2
DA:131,2
DA:132,0
DA:133,0
DA:134,0
DA:135,0
DA:137,2
DA:138,2
DA:139,43
DA:142,43
DA:143,43
DA:144,43
DA:145,43
DA:146,43
DA:147,43
DA:149,43
DA:151,43
DA:152,43
DA:153,43
DA:154,43
DA:155,43
DA:158,20
DA:159,20
DA:160,20
DA:161,20
DA:162,20
DA:163,20
DA:164,20
DA:166,20
DA:169,20
DA:170,40
DA:171,20
DA:172,20
DA:173,20
DA:174,20
DA:175,20
DA:177,20
DA:178,0
DA:179,0
DA:180,0
DA:181,0
DA:189,20
DA:190,0
DA:191,0
DA:192,0
DA:195,0
DA:198,20
DA:199,20
DA:201,975
DA:202,955
DA:203,955
DA:204,955
DA:205,955
DA:206,257
DA:207,698
DA:210,698
DA:212,698
DA:214,14
DA:215,14
DA:216,9
DA:217,5
DA:218,5
DA:220,0
DA:223,14
DA:225,14
DA:226,14
DA:227,14
DA:228,0
DA:229,0
DA:230,0
DA:233,14
DA:234,14
DA:235,0
DA:236,0
DA:237,14
DA:238,14
DA:239,14
DA:240,14
DA:241,684
DA:243,0
DA:244,0
DA:249,20
DA:250,20
DA:253,20
DA:254,20
DA:255,20
DA:256,20
DA:257,20
DA:258,20
DA:260,40
DA:261,20
DA:262,20
DA:263,0
DA:265,20
DA:269,20
DA:271,8
DA:272,8
DA:274,8
DA:275,8
DA:276,8
DA:277,8
DA:280,8
DA:281,8
DA:282,8
DA:283,8
DA:285,0
DA:288,0
DA:292,12
DA:295,20
DA:298,20
DA:299,20
DA:303,9
DA:304,9
DA:305,9
DA:306,9
DA:307,9
DA:310,9
DA:312,29
DA:313,20
DA:314,20
DA:315,20
DA:317,9
DA:318,9
DA:321,20
DA:322,20
DA:324,20
DA:325,0
DA:327,20
DA:331,20
DA:332,29
DA:333,29
DA:334,20
DA:335,20
DA:336,20
DA:337,9
DA:338,9
DA:342,0
DA:343,0
DA:344,0
DA:345,20
DA:355,6
DA:356,6
DA:357,6
DA:360,1
DA:361,1
DA:362,1
DA:363,1
DA:364,1
DA:365,1
DA:366,1
DA:367,1
DA:368,1
DA:369,1
DA:370,1
DA:371,1
DA:372,1
DA:373,1
DA:374,1
DA:375,1
DA:376,1
DA:377,1
DA:378,1
DA:379,1
DA:380,1
DA:382,1
DA:383,1
DA:384,1
DA:386,1
DA:387,1
DA:389,1
DA:390,1
DA:392,1
DA:393,1
DA:394,1
DA:395,1
DA:396,1
DA:398,1
DA:399,1
DA:402,1
DA:403,1
DA:404,1
DA:405,1
DA:406,1
DA:407,1
DA:408,1
DA:409,1
DA:412,1
DA:414,1
DA:415,1
DA:416,1
DA:417,1
DA:418,1
DA:419,1
DA:420,1
DA:421,1
DA:422,1
DA:423,1
DA:424,1
DA:425,1
DA:426,1
DA:427,1
DA:428,1
DA:429,1
DA:430,1
DA:431,1
DA:432,1
DA:433,1
DA:434,1
DA:437,1
DA:438,1
DA:439,1
DA:440,0
DA:444,1
DA:445,1
DA:446,1
DA:447,1
DA:450,1
DA:452,1
DA:453,1
DA:454,1
DA:455,1
DA:456,1
DA:457,1
DA:458,1
DA:459,1
DA:460,1
DA:461,1
DA:462,1
DA:463,1
DA:464,1
DA:465,1
DA:466,1
DA:467,1
DA:468,1
DA:469,1
DA:470,1
DA:471,1
DA:472,1
DA:473,1
DA:476,1
DA:477,1
DA:478,1
DA:479,0
DA:483,1
DA:484,1
DA:485,1
DA:486,1
BRF:0
BRH:0
LF:287
LH:250
end_of_record
SF:/Users/theoribeiro/Dev/tools/bake/src/project/recipe_template.rs
FN:282,_RNCNvMNtNtCs4EkGjsAKdp2_4bake7project15recipe_templateNtB4_14RecipeTemplate11instantiate0B8_
FN:304,_RNCNvMNtNtCs4EkGjsAKdp2_4bake7project15recipe_templateNtB4_14RecipeTemplate11instantiates0_0B8_
FN:295,_RNCNvMNtNtCs4EkGjsAKdp2_4bake7project15recipe_templateNtB4_14RecipeTemplate11instantiates_0B8_
FN:94,_RNCNvMNtNtCs4EkGjsAKdp2_4bake7project15recipe_templateNtB4_14RecipeTemplate9from_file0B8_
FN:104,_RNCNvMNtNtCs4EkGjsAKdp2_4bake7project15recipe_templateNtB4_14RecipeTemplate9from_files_0B8_
FN:261,_RNvMNtNtCs4EkGjsAKdp2_4bake7project15recipe_templateNtB2_14RecipeTemplate11instantiate
FN:121,_RNvMNtNtCs4EkGjsAKdp2_4bake7project15recipe_templateNtB2_14RecipeTemplate18extract_yaml_block
FN:195,_RNvMNtNtCs4EkGjsAKdp2_4bake7project15recipe_templateNtB2_14RecipeTemplate18resolve_parameters
FN:176,_RNvMNtNtCs4EkGjsAKdp2_4bake7project15recipe_templateNtB2_14RecipeTemplate22split_template_content
FN:233,_RNvMNtNtCs4EkGjsAKdp2_4bake7project15recipe_templateNtB2_14RecipeTemplate23validate_parameter_type
FN:77,_RNvMNtNtCs4EkGjsAKdp2_4bake7project15recipe_templateNtB2_14RecipeTemplate9from_file
FN:261,_RNvMNtNtCs1lk7uXtNODC_4bake7project15recipe_templateNtB2_14RecipeTemplate11instantiate
FN:121,_RNvMNtNtCs1lk7uXtNODC_4bake7project15recipe_templateNtB2_14RecipeTemplate18extract_yaml_block
FN:195,_RNvMNtNtCs1lk7uXtNODC_4bake7project15recipe_templateNtB2_14RecipeTemplate18resolve_parameters
FN:176,_RNvMNtNtCs1lk7uXtNODC_4bake7project15recipe_templateNtB2_14RecipeTemplate22split_template_content
FN:233,_RNvMNtNtCs1lk7uXtNODC_4bake7project15recipe_templateNtB2_14RecipeTemplate23validate_parameter_type
FN:77,_RNvMNtNtCs1lk7uXtNODC_4bake7project15recipe_templateNtB2_14RecipeTemplate9from_file
FN:282,_RNCNvMNtNtCs1lk7uXtNODC_4bake7project15recipe_templateNtB4_14RecipeTemplate11instantiate0B8_
FN:304,_RNCNvMNtNtCs1lk7uXtNODC_4bake7project15recipe_templateNtB4_14RecipeTemplate11instantiates0_0B8_
FN:295,_RNCNvMNtNtCs1lk7uXtNODC_4bake7project15recipe_templateNtB4_14RecipeTemplate11instantiates_0B8_
FN:94,_RNCNvMNtNtCs1lk7uXtNODC_4bake7project15recipe_templateNtB4_14RecipeTemplate9from_file0B8_
FN:104,_RNCNvMNtNtCs1lk7uXtNODC_4bake7project15recipe_templateNtB4_14RecipeTemplate9from_files_0B8_
FN:406,_RNvNtNtNtCs1lk7uXtNODC_4bake7project15recipe_template5testss_23test_template_from_file
FN:341,_RNvNtNtNtCs1lk7uXtNODC_4bake7project15recipe_template5testss_25test_parameter_resolution
FN:436,_RNvNtNtNtCs1lk7uXtNODC_4bake7project15recipe_template5testss_27test_split_template_content
FN:470,_RNvNtNtNtCs1lk7uXtNODC_4bake7project15recipe_template5testss_40test_split_template_content_out_of_order
FN:504,_RNvNtNtNtCs1lk7uXtNODC_4bake7project15recipe_template5testss_47test_split_template_content_no_template_section
FNDA:7,_RNCNvMNtNtCs4EkGjsAKdp2_4bake7project15recipe_templateNtB4_14RecipeTemplate11instantiate0B8_
FNDA:0,_RNCNvMNtNtCs4EkGjsAKdp2_4bake7project15recipe_templateNtB4_14RecipeTemplate11instantiates0_0B8_
FNDA:0,_RNCNvMNtNtCs4EkGjsAKdp2_4bake7project15recipe_templateNtB4_14RecipeTemplate11instantiates_0B8_
FNDA:0,_RNCNvMNtNtCs4EkGjsAKdp2_4bake7project15recipe_templateNtB4_14RecipeTemplate9from_file0B8_
FNDA:0,_RNCNvMNtNtCs4EkGjsAKdp2_4bake7project15recipe_templateNtB4_14RecipeTemplate9from_files_0B8_
FNDA:3,_RNvMNtNtCs4EkGjsAKdp2_4bake7project15recipe_templateNtB2_14RecipeTemplate11instantiate
FNDA:6,_RNvMNtNtCs4EkGjsAKdp2_4bake7project15recipe_templateNtB2_14RecipeTemplate18extract_yaml_block
FNDA:3,_RNvMNtNtCs4EkGjsAKdp2_4bake7project15recipe_templateNtB2_14RecipeTemplate18resolve_parameters
FNDA:3,_RNvMNtNtCs4EkGjsAKdp2_4bake7project15recipe_templateNtB2_14RecipeTemplate22split_template_content
FNDA:7,_RNvMNtNtCs4EkGjsAKdp2_4bake7project15recipe_templateNtB2_14RecipeTemplate23validate_parameter_type
FNDA:3,_RNvMNtNtCs4EkGjsAKdp2_4bake7project15recipe_templateNtB2_14RecipeTemplate9from_file
FNDA:117,_RNvMNtNtCs1lk7uXtNODC_4bake7project15recipe_templateNtB2_14RecipeTemplate11instantiate
FNDA:164,_RNvMNtNtCs1lk7uXtNODC_4bake7project15recipe_templateNtB2_14RecipeTemplate18extract_yaml_block
FNDA:120,_RNvMNtNtCs1lk7uXtNODC_4bake7project15recipe_templateNtB2_14RecipeTemplate18resolve_parameters
FNDA:82,_RNvMNtNtCs1lk7uXtNODC_4bake7project15recipe_templateNtB2_14RecipeTemplate22split_template_content
FNDA:277,_RNvMNtNtCs1lk7uXtNODC_4bake7project15recipe_templateNtB2_14RecipeTemplate23validate_parameter_type
FNDA:79,_RNvMNtNtCs1lk7uXtNODC_4bake7project15recipe_templateNtB2_14RecipeTemplate9from_file
FNDA:273,_RNCNvMNtNtCs1lk7uXtNODC_4bake7project15recipe_templateNtB4_14RecipeTemplate11instantiate0B8_
FNDA:0,_RNCNvMNtNtCs1lk7uXtNODC_4bake7project15recipe_templateNtB4_14RecipeTemplate11instantiates0_0B8_
FNDA:0,_RNCNvMNtNtCs1lk7uXtNODC_4bake7project15recipe_templateNtB4_14RecipeTemplate11instantiates_0B8_
FNDA:0,_RNCNvMNtNtCs1lk7uXtNODC_4bake7project15recipe_templateNtB4_14RecipeTemplate9from_file0B8_
FNDA:0,_RNCNvMNtNtCs1lk7uXtNODC_4bake7project15recipe_templateNtB4_14RecipeTemplate9from_files_0B8_
FNDA:1,_RNvNtNtNtCs1lk7uXtNODC_4bake7project15recipe_template5testss_23test_template_from_file
FNDA:1,_RNvNtNtNtCs1lk7uXtNODC_4bake7project15recipe_template5testss_25test_parameter_resolution
FNDA:1,_RNvNtNtNtCs1lk7uXtNODC_4bake7project15recipe_template5testss_27test_split_template_content
FNDA:1,_RNvNtNtNtCs1lk7uXtNODC_4bake7project15recipe_template5testss_40test_split_template_content_out_of_order
FNDA:1,_RNvNtNtNtCs1lk7uXtNODC_4bake7project15recipe_template5testss_47test_split_template_content_no_template_section
FNF:16
FNH:12
DA:77,82
DA:78,82
DA:79,82
DA:80,0
DA:81,0
DA:82,0
DA:88,82
DA:89,82
DA:92,82
DA:93,82
DA:94,0
DA:95,0
DA:96,0
DA:99,82
DA:100,0
DA:102,82
DA:103,82
DA:104,0
DA:105,0
DA:106,0
DA:109,82
DA:110,82
DA:111,82
DA:112,82
DA:113,82
DA:114,82
DA:115,82
DA:116,82
DA:117,82
DA:121,170
DA:122,170
DA:123,170
DA:124,170
DA:125,170
DA:128,518
DA:129,518
DA:130,518
DA:131,168
DA:132,168
DA:133,168
DA:134,350
DA:137,170
DA:139,168
DA:141,2709
DA:142,2709
DA:143,168
DA:144,168
DA:145,2541
DA:147,2541
DA:148,1591
DA:149,1591
DA:153,1591
DA:154,85
DA:155,84
DA:156,84
DA:157,84
DA:158,84
DA:159,1507
DA:160,1507
DA:161,1507
DA:162,950
DA:163,950
DA:164,950
DA:166,2
DA:167,2
DA:168,2
DA:169,2
DA:171,170
DA:172,170
DA:176,85
DA:177,85
DA:180,85
DA:181,85
DA:184,85
DA:185,85
DA:187,85
DA:188,85
DA:189,85
DA:190,85
DA:191,85
DA:192,85
DA:195,123
DA:196,123
DA:197,123
DA:198,123
DA:199,123
DA:202,409
DA:203,286
DA:204,243
DA:205,243
DA:209,123
DA:212,408
DA:213,286
DA:214,1
DA:215,1
DA:219,285
DA:223,405
DA:224,284
DA:225,284
DA:226,0
DA:229,121
DA:230,123
DA:233,284
DA:234,284
DA:235,284
DA:236,284
DA:237,284
DA:238,284
DA:239,284
DA:240,284
DA:248,284
DA:249,1
DA:250,1
DA:255,283
DA:257,283
DA:258,284
DA:261,120
DA:262,120
DA:263,120
DA:264,120
DA:265,120
DA:266,120
DA:267,120
DA:268,120
DA:269,120
DA:271,120
DA:274,120
DA:275,120
DA:276,120
DA:277,120
DA:280,120
DA:281,120
DA:282,280
DA:283,120
DA:285,120
DA:286,120
DA:287,120
DA:290,120
DA:293,120
DA:294,120
DA:295,0
DA:297,0
DA:300,120
DA:303,120
DA:304,120
DA:305,0
DA:306,0
DA:310,0
DA:313,120
DA:314,120
DA:315,120
DA:316,120
DA:317,120
DA:318,120
DA:321,120
DA:322,160
DA:323,80
DA:324,80
DA:325,80
DA:327,40
DA:329,120
DA:330,120
DA:341,1
DA:342,1
DA:343,1
DA:344,1
DA:345,1
DA:346,1
DA:347,1
DA:348,1
DA:349,1
DA:350,1
DA:351,1
DA:352,1
DA:353,1
DA:354,1
DA:355,1
DA:356,1
DA:357,1
DA:358,1
DA:359,1
DA:360,1
DA:361,1
DA:362,1
DA:363,1
DA:364,1
DA:365,1
DA:366,1
DA:367,1
DA:368,1
DA:369,1
DA:370,1
DA:371,1
DA:372,1
DA:373,1
DA:374,1
DA:375,1
DA:376,1
DA:379,1
DA:380,1
DA:383,1
DA:384,1
DA:385,1
DA:386,1
DA:387,1
DA:388,1
DA:389,1
DA:390,1
DA:392,1
DA:393,1
DA:394,1
DA:398,1
DA:399,1
DA:400,1
DA:401,1
DA:402,1
DA:403,1
DA:406,1
DA:407,1
DA:408,1
DA:410,1
DA:411,1
DA:412,1
DA:413,1
DA:414,1
DA:415,1
DA:416,1
DA:417,1
DA:418,1
DA:419,1
DA:420,1
DA:421,1
DA:422,1
DA:423,1
DA:424,1
DA:426,1
DA:428,1
DA:429,1
DA:430,1
DA:431,1
DA:432,1
DA:433,1
DA:436,1
DA:437,1
DA:438,1
DA:439,1
DA:440,1
DA:441,1
DA:442,1
DA:443,1
DA:444,1
DA:445,1
DA:446,1
DA:448,1
DA:449,1
DA:452,1
DA:453,1
DA:454,1
DA:455,1
DA:458,1
DA:459,1
DA:460,1
DA:461,1
DA:464,1
DA:465,1
DA:466,1
DA:467,1
DA:470,1
DA:472,1
DA:473,1
DA:474,1
DA:475,1
DA:476,1
DA:477,1
DA:478,1
DA:479,1
DA:480,1
DA:481,1
DA:483,1
DA:484,1
DA:487,1
DA:488,1
DA:489,1
DA:490,1
DA:493,1
DA:494,1
DA:495,1
DA:498,1
DA:499,1
DA:500,1
DA:501,1
DA:504,1
DA:506,1
DA:507,1
DA:508,1
DA:509,1
DA:510,1
DA:511,1
DA:512,1
DA:514,1
DA:515,1
DA:518,1
DA:519,1
DA:520,1
DA:523,1
DA:524,1
DA:527,1
DA:528,1
BRF:0
BRH:0
LF:311
LH:293
end_of_record
SF:/Users/theoribeiro/Dev/tools/bake/src/template.rs
FN:48,_RNvMNtCs4EkGjsAKdp2_4bake8templateNtB2_18VariableFileLoader24load_variables_from_file
FN:83,_RNvMNtCs4EkGjsAKdp2_4bake8templateNtB2_18VariableFileLoader29extract_environment_variables
FN:21,_RNvMNtCs4EkGjsAKdp2_4bake8templateNtB2_18VariableFileLoader29load_variables_from_directory
FN:460,_RNvMs0_NtCs4EkGjsAKdp2_4bake8templateNtB5_22VariableContextBuilder11environment
FN:484,_RNvMs0_NtCs4EkGjsAKdp2_4bake8templateNtB5_22VariableContextBuilder24variables_from_directory
FN:454,_RNvMs0_NtCs4EkGjsAKdp2_4bake8templateNtB5_22VariableContextBuilder3new
FN:494,_RNvMs0_NtCs4EkGjsAKdp2_4bake8templateNtB5_22VariableContextBuilder5build
FN:470,_RNvMs0_NtCs4EkGjsAKdp2_4bake8templateNtB5_22VariableContextBuilder9overrides
FN:465,_RNvMs0_NtCs4EkGjsAKdp2_4bake8templateNtB5_22VariableContextBuilder9variables
FN:192,_RNvMs_NtCs4EkGjsAKdp2_4bake8templateNtB4_15VariableContext12yaml_to_json
FN:329,_RNvMs_NtCs4EkGjsAKdp2_4bake8templateNtB4_15VariableContext14parse_template
FN:291,_RNvMs_NtCs4EkGjsAKdp2_4bake8templateNtB4_15VariableContext17process_variables
FN:227,_RNvMs_NtCs4EkGjsAKdp2_4bake8templateNtB4_15VariableContext19render_raw_template
FN:369,_RNvMs_NtCs4EkGjsAKdp2_4bake8templateNtB4_15VariableContext22with_project_constants
FN:384,_RNvMs_NtCs4EkGjsAKdp2_4bake8templateNtB4_15VariableContext23with_cookbook_constants
FN:403,_RNvMs_NtCs4EkGjsAKdp2_4bake8templateNtB4_15VariableContext25process_template_in_value
FN:265,_RNvMs_NtCs4EkGjsAKdp2_4bake8templateNtB4_15VariableContext5empty
FN:280,_RNvMs_NtCs4EkGjsAKdp2_4bake8templateNtB4_15VariableContext5merge
FN:275,_RNvMs_NtCs4EkGjsAKdp2_4bake8templateNtB4_15VariableContext7builder
FN:500,_RNvXs1_NtCs4EkGjsAKdp2_4bake8templateNtB5_22VariableContextBuilderNtNtCs4ZQmVerOrPM_4core7default7Default7default
FN:218,_RNCNCNvMs_NtCs4EkGjsAKdp2_4bake8templateNtB8_15VariableContext12yaml_to_json00Ba_
FN:52,_RNCNvMNtCs4EkGjsAKdp2_4bake8templateNtB4_18VariableFileLoader24load_variables_from_file0B6_
FN:61,_RNCNvMNtCs4EkGjsAKdp2_4bake8templateNtB4_18VariableFileLoader24load_variables_from_files_0B6_
FN:88,_RNCNvMNtCs4EkGjsAKdp2_4bake8templateNtB4_18VariableFileLoader29extract_environment_variables0B6_
FN:110,_RNCNvMNtCs4EkGjsAKdp2_4bake8templateNtB4_18VariableFileLoader29extract_environment_variabless0_0B6_
FN:128,_RNCNvMNtCs4EkGjsAKdp2_4bake8templateNtB4_18VariableFileLoader29extract_environment_variabless1_0B6_
FN:137,_RNCNvMNtCs4EkGjsAKdp2_4bake8templateNtB4_18VariableFileLoader29extract_environment_variabless2_0B6_
FN:144,_RNCNvMNtCs4EkGjsAKdp2_4bake8templateNtB4_18VariableFileLoader29extract_environment_variabless3_0B6_
FN:102,_RNCNvMNtCs4EkGjsAKdp2_4bake8templateNtB4_18VariableFileLoader29extract_environment_variabless_0B6_
FN:216,_RNCNvMs_NtCs4EkGjsAKdp2_4bake8templateNtB6_15VariableContext12yaml_to_json0B8_
FN:334,_RNCNvMs_NtCs4EkGjsAKdp2_4bake8templateNtB6_15VariableContext14parse_template0B8_
FN:356,_RNCNvMs_NtCs4EkGjsAKdp2_4bake8templateNtB6_15VariableContext14parse_templates0_0B8_
FN:352,_RNCNvMs_NtCs4EkGjsAKdp2_4bake8templateNtB6_15VariableContext14parse_templates_0B8_
FN:294,_RNCNvMs_NtCs4EkGjsAKdp2_4bake8templateNtB6_15VariableContext17process_variables0B8_
FN:242,_RNCNvMs_NtCs4EkGjsAKdp2_4bake8templateNtB6_15VariableContext19render_raw_template0B8_
FN:253,_RNCNvMs_NtCs4EkGjsAKdp2_4bake8templateNtB6_15VariableContext19render_raw_templates0_0B8_
FN:249,_RNCNvMs_NtCs4EkGjsAKdp2_4bake8templateNtB6_15VariableContext19render_raw_templates_0B8_
FN:388,_RNCNvMs_NtCs4EkGjsAKdp2_4bake8templateNtB6_15VariableContext23with_cookbook_constants0B8_
FN:283,_RNCNvMs_NtCs4EkGjsAKdp2_4bake8templateNtB6_15VariableContext5merge0B8_
FN:287,_RNCNvMs_NtCs4EkGjsAKdp2_4bake8templateNtB6_15VariableContext5merges0_0B8_
FN:285,_RNCNvMs_NtCs4EkGjsAKdp2_4bake8templateNtB6_15VariableContext5merges_0B8_
FN:500,_RNvXs1_NtCs1lk7uXtNODC_4bake8templateNtB5_22VariableContextBuilderNtNtCs4ZQmVerOrPM_4core7default7Default7default
FN:48,_RNvMNtCs1lk7uXtNODC_4bake8templateNtB2_18VariableFileLoader24load_variables_from_file
FN:83,_RNvMNtCs1lk7uXtNODC_4bake8templateNtB2_18VariableFileLoader29extract_environment_variables
FN:21,_RNvMNtCs1lk7uXtNODC_4bake8templateNtB2_18VariableFileLoader29load_variables_from_directory
FN:460,_RNvMs0_NtCs1lk7uXtNODC_4bake8templateNtB5_22VariableContextBuilder11environment
FN:484,_RNvMs0_NtCs1lk7uXtNODC_4bake8templateNtB5_22VariableContextBuilder24variables_from_directory
FN:454,_RNvMs0_NtCs1lk7uXtNODC_4bake8templateNtB5_22VariableContextBuilder3new
FN:494,_RNvMs0_NtCs1lk7uXtNODC_4bake8templateNtB5_22VariableContextBuilder5build
FN:470,_RNvMs0_NtCs1lk7uXtNODC_4bake8templateNtB5_22VariableContextBuilder9overrides
FN:465,_RNvMs0_NtCs1lk7uXtNODC_4bake8templateNtB5_22VariableContextBuilder9variables
FN:192,_RNvMs_NtCs1lk7uXtNODC_4bake8templateNtB4_15VariableContext12yaml_to_json
FN:329,_RNvMs_NtCs1lk7uXtNODC_4bake8templateNtB4_15VariableContext14parse_template
FN:291,_RNvMs_NtCs1lk7uXtNODC_4bake8templateNtB4_15VariableContext17process_variables
FN:227,_RNvMs_NtCs1lk7uXtNODC_4bake8templateNtB4_15VariableContext19render_raw_template
FN:369,_RNvMs_NtCs1lk7uXtNODC_4bake8templateNtB4_15VariableContext22with_project_constants
FN:384,_RNvMs_NtCs1lk7uXtNODC_4bake8templateNtB4_15VariableContext23with_cookbook_constants
FN:403,_RNvMs_NtCs1lk7uXtNODC_4bake8templateNtB4_15VariableContext25process_template_in_value
FN:265,_RNvMs_NtCs1lk7uXtNODC_4bake8templateNtB4_15VariableContext5empty
FN:280,_RNvMs_NtCs1lk7uXtNODC_4bake8templateNtB4_15VariableContext5merge
FN:275,_RNvMs_NtCs1lk7uXtNODC_4bake8templateNtB4_15VariableContext7builder
FN:511,_RNvNtNtCs1lk7uXtNODC_4bake8template4tests_19test_parse_template
FN:540,_RNvNtNtCs1lk7uXtNODC_4bake8template4tests_24test_parse_variable_list
FN:650,_RNvNtNtCs1lk7uXtNODC_4bake8template4tests_25test_variable_inheritance
FN:620,_RNvNtNtCs1lk7uXtNODC_4bake8template4tests_27test_variable_context_merge
FN:594,_RNvNtNtCs1lk7uXtNODC_4bake8template4tests_29test_variable_context_builder
FN:713,_RNvNtNtCs1lk7uXtNODC_4bake8template4tests_34test_boolean_template_substitution
FN:744,_RNvNtNtCs1lk7uXtNODC_4bake8template4tests_48test_process_template_in_value_type_preservation
FN:218,_RNCNCNvMs_NtCs1lk7uXtNODC_4bake8templateNtB8_15VariableContext12yaml_to_json00Ba_
FN:52,_RNCNvMNtCs1lk7uXtNODC_4bake8templateNtB4_18VariableFileLoader24load_variables_from_file0B6_
FN:61,_RNCNvMNtCs1lk7uXtNODC_4bake8templateNtB4_18VariableFileLoader24load_variables_from_files_0B6_
FN:88,_RNCNvMNtCs1lk7uXtNODC_4bake8templateNtB4_18VariableFileLoader29extract_environment_variables0B6_
FN:110,_RNCNvMNtCs1lk7uXtNODC_4bake8templateNtB4_18VariableFileLoader29extract_environment_variabless0_0B6_
FN:128,_RNCNvMNtCs1lk7uXtNODC_4bake8templateNtB4_18VariableFileLoader29extract_environment_variabless1_0B6_
FN:137,_RNCNvMNtCs1lk7uXtNODC_4bake8templateNtB4_18VariableFileLoader29extract_environment_variabless2_0B6_
FN:144,_RNCNvMNtCs1lk7uXtNODC_4bake8templateNtB4_18VariableFileLoader29extract_environment_variabless3_0B6_
FN:102,_RNCNvMNtCs1lk7uXtNODC_4bake8templateNtB4_18VariableFileLoader29extract_environment_variabless_0B6_
FN:216,_RNCNvMs_NtCs1lk7uXtNODC_4bake8templateNtB6_15VariableContext12yaml_to_json0B8_
FN:334,_RNCNvMs_NtCs1lk7uXtNODC_4bake8templateNtB6_15VariableContext14parse_template0B8_
FN:356,_RNCNvMs_NtCs1lk7uXtNODC_4bake8templateNtB6_15VariableContext14parse_templates0_0B8_
FN:352,_RNCNvMs_NtCs1lk7uXtNODC_4bake8templateNtB6_15VariableContext14parse_templates_0B8_
FN:294,_RNCNvMs_NtCs1lk7uXtNODC_4bake8templateNtB6_15VariableContext17process_variables0B8_
FN:242,_RNCNvMs_NtCs1lk7uXtNODC_4bake8templateNtB6_15VariableContext19render_raw_template0B8_
FN:253,_RNCNvMs_NtCs1lk7uXtNODC_4bake8templateNtB6_15VariableContext19render_raw_templates0_0B8_
FN:249,_RNCNvMs_NtCs1lk7uXtNODC_4bake8templateNtB6_15VariableContext19render_raw_templates_0B8_
FN:388,_RNCNvMs_NtCs1lk7uXtNODC_4bake8templateNtB6_15VariableContext23with_cookbook_constants0B8_
FN:283,_RNCNvMs_NtCs1lk7uXtNODC_4bake8templateNtB6_15VariableContext5merge0B8_
FN:287,_RNCNvMs_NtCs1lk7uXtNODC_4bake8templateNtB6_15VariableContext5merges0_0B8_
FN:285,_RNCNvMs_NtCs1lk7uXtNODC_4bake8templateNtB6_15VariableContext5merges_0B8_
FNDA:10,_RNvMNtCs4EkGjsAKdp2_4bake8templateNtB2_18VariableFileLoader24load_variables_from_file
FNDA:10,_RNvMNtCs4EkGjsAKdp2_4bake8templateNtB2_18VariableFileLoader29extract_environment_variables
FNDA:20,_RNvMNtCs4EkGjsAKdp2_4bake8templateNtB2_18VariableFileLoader29load_variables_from_directory
FNDA:21,_RNvMs0_NtCs4EkGjsAKdp2_4bake8templateNtB5_22VariableContextBuilder11environment
FNDA:8,_RNvMs0_NtCs4EkGjsAKdp2_4bake8templateNtB5_22VariableContextBuilder24variables_from_directory
FNDA:22,_RNvMs0_NtCs4EkGjsAKdp2_4bake8templateNtB5_22VariableContextBuilder3new
FNDA:22,_RNvMs0_NtCs4EkGjsAKdp2_4bake8templateNtB5_22VariableContextBuilder5build
FNDA:21,_RNvMs0_NtCs4EkGjsAKdp2_4bake8templateNtB5_22VariableContextBuilder9overrides
FNDA:14,_RNvMs0_NtCs4EkGjsAKdp2_4bake8templateNtB5_22VariableContextBuilder9variables
FNDA:65,_RNvMs_NtCs4EkGjsAKdp2_4bake8templateNtB4_15VariableContext12yaml_to_json
FNDA:31,_RNvMs_NtCs4EkGjsAKdp2_4bake8templateNtB4_15VariableContext14parse_template
FNDA:40,_RNvMs_NtCs4EkGjsAKdp2_4bake8templateNtB4_15VariableContext17process_variables
FNDA:3,_RNvMs_NtCs4EkGjsAKdp2_4bake8templateNtB4_15VariableContext19render_raw_template
FNDA:30,_RNvMs_NtCs4EkGjsAKdp2_4bake8templateNtB4_15VariableContext22with_project_constants
FNDA:23,_RNvMs_NtCs4EkGjsAKdp2_4bake8templateNtB4_15VariableContext23with_cookbook_constants
FNDA:153,_RNvMs_NtCs4EkGjsAKdp2_4bake8templateNtB4_15VariableContext25process_template_in_value
FNDA:22,_RNvMs_NtCs4EkGjsAKdp2_4bake8templateNtB4_15VariableContext5empty
FNDA:50,_RNvMs_NtCs4EkGjsAKdp2_4bake8templateNtB4_15VariableContext5merge
FNDA:21,_RNvMs_NtCs4EkGjsAKdp2_4bake8templateNtB4_15VariableContext7builder
FNDA:0,_RNvXs1_NtCs4EkGjsAKdp2_4bake8templateNtB5_22VariableContextBuilderNtNtCs4ZQmVerOrPM_4core7default7Default7default
FNDA:0,_RNCNCNvMs_NtCs4EkGjsAKdp2_4bake8templateNtB8_15VariableContext12yaml_to_json00Ba_
FNDA:0,_RNCNvMNtCs4EkGjsAKdp2_4bake8templateNtB4_18VariableFileLoader24load_variables_from_file0B6_
FNDA:0,_RNCNvMNtCs4EkGjsAKdp2_4bake8templateNtB4_18VariableFileLoader24load_variables_from_files_0B6_
FNDA:0,_RNCNvMNtCs4EkGjsAKdp2_4bake8templateNtB4_18VariableFileLoader29extract_environment_variables0B6_
FNDA:0,_RNCNvMNtCs4EkGjsAKdp2_4bake8templateNtB4_18VariableFileLoader29extract_environment_variabless0_0B6_
FNDA:0,_RNCNvMNtCs4EkGjsAKdp2_4bake8templateNtB4_18VariableFileLoader29extract_environment_variabless1_0B6_
FNDA:0,_RNCNvMNtCs4EkGjsAKdp2_4bake8templateNtB4_18VariableFileLoader29extract_environment_variabless2_0B6_
FNDA:0,_RNCNvMNtCs4EkGjsAKdp2_4bake8templateNtB4_18VariableFileLoader29extract_environment_variabless3_0B6_
FNDA:0,_RNCNvMNtCs4EkGjsAKdp2_4bake8templateNtB4_18VariableFileLoader29extract_environment_variabless_0B6_
FNDA:0,_RNCNvMs_NtCs4EkGjsAKdp2_4bake8templateNtB6_15VariableContext12yaml_to_json0B8_
FNDA:23,_RNCNvMs_NtCs4EkGjsAKdp2_4bake8templateNtB6_15VariableContext14parse_template0B8_
FNDA:62,_RNCNvMs_NtCs4EkGjsAKdp2_4bake8templateNtB6_15VariableContext14parse_templates0_0B8_
FNDA:55,_RNCNvMs_NtCs4EkGjsAKdp2_4bake8templateNtB6_15VariableContext14parse_templates_0B8_
FNDA:45,_RNCNvMs_NtCs4EkGjsAKdp2_4bake8templateNtB6_15VariableContext17process_variables0B8_
FNDA:0,_RNCNvMs_NtCs4EkGjsAKdp2_4bake8templateNtB6_15VariableContext19render_raw_template0B8_
FNDA:9,_RNCNvMs_NtCs4EkGjsAKdp2_4bake8templateNtB6_15VariableContext19render_raw_templates0_0B8_
FNDA:0,_RNCNvMs_NtCs4EkGjsAKdp2_4bake8templateNtB6_15VariableContext19render_raw_templates_0B8_
FNDA:0,_RNCNvMs_NtCs4EkGjsAKdp2_4bake8templateNtB6_15VariableContext23with_cookbook_constants0B8_
FNDA:0,_RNCNvMs_NtCs4EkGjsAKdp2_4bake8templateNtB6_15VariableContext5merge0B8_
FNDA:0,_RNCNvMs_NtCs4EkGjsAKdp2_4bake8templateNtB6_15VariableContext5merges0_0B8_
FNDA:50,_RNCNvMs_NtCs4EkGjsAKdp2_4bake8templateNtB6_15VariableContext5merges_0B8_
FNDA:0,_RNvXs1_NtCs1lk7uXtNODC_4bake8templateNtB5_22VariableContextBuilderNtNtCs4ZQmVerOrPM_4core7default7Default7default
FNDA:81,_RNvMNtCs1lk7uXtNODC_4bake8templateNtB2_18VariableFileLoader24load_variables_from_file
FNDA:81,_RNvMNtCs1lk7uXtNODC_4bake8templateNtB2_18VariableFileLoader29extract_environment_variables
FNDA:214,_RNvMNtCs1lk7uXtNODC_4bake8templateNtB2_18VariableFileLoader29load_variables_from_directory
FNDA:140,_RNvMs0_NtCs1lk7uXtNODC_4bake8templateNtB5_22VariableContextBuilder11environment
FNDA:45,_RNvMs0_NtCs1lk7uXtNODC_4bake8templateNtB5_22VariableContextBuilder24variables_from_directory
FNDA:148,_RNvMs0_NtCs1lk7uXtNODC_4bake8templateNtB5_22VariableContextBuilder3new
FNDA:148,_RNvMs0_NtCs1lk7uXtNODC_4bake8templateNtB5_22VariableContextBuilder5build
FNDA:140,_RNvMs0_NtCs1lk7uXtNODC_4bake8templateNtB5_22VariableContextBuilder9overrides
FNDA:101,_RNvMs0_NtCs1lk7uXtNODC_4bake8templateNtB5_22VariableContextBuilder9variables
FNDA:2651,_RNvMs_NtCs1lk7uXtNODC_4bake8templateNtB4_15VariableContext12yaml_to_json
FNDA:951,_RNvMs_NtCs1lk7uXtNODC_4bake8templateNtB4_15VariableContext14parse_template
FNDA:786,_RNvMs_NtCs1lk7uXtNODC_4bake8templateNtB4_15VariableContext17process_variables
FNDA:118,_RNvMs_NtCs1lk7uXtNODC_4bake8templateNtB4_15VariableContext19render_raw_template
FNDA:494,_RNvMs_NtCs1lk7uXtNODC_4bake8templateNtB4_15VariableContext22with_project_constants
FNDA:446,_RNvMs_NtCs1lk7uXtNODC_4bake8templateNtB4_15VariableContext23with_cookbook_constants
FNDA:4461,_RNvMs_NtCs1lk7uXtNODC_4bake8templateNtB4_15VariableContext25process_template_in_value
FNDA:148,_RNvMs_NtCs1lk7uXtNODC_4bake8templateNtB4_15VariableContext5empty
FNDA:821,_RNvMs_NtCs1lk7uXtNODC_4bake8templateNtB4_15VariableContext5merge
FNDA:148,_RNvMs_NtCs1lk7uXtNODC_4bake8templateNtB4_15VariableContext7builder
FNDA:1,_RNvNtNtCs1lk7uXtNODC_4bake8template4tests_19test_parse_template
FNDA:1,_RNvNtNtCs1lk7uXtNODC_4bake8template4tests_24test_parse_variable_list
FNDA:1,_RNvNtNtCs1lk7uXtNODC_4bake8template4tests_25test_variable_inheritance
FNDA:1,_RNvNtNtCs1lk7uXtNODC_4bake8template4tests_27test_variable_context_merge
FNDA:1,_RNvNtNtCs1lk7uXtNODC_4bake8template4tests_29test_variable_context_builder
FNDA:1,_RNvNtNtCs1lk7uXtNODC_4bake8template4tests_34test_boolean_template_substitution
FNDA:1,_RNvNtNtCs1lk7uXtNODC_4bake8template4tests_48test_process_template_in_value_type_preservation
FNDA:0,_RNCNCNvMs_NtCs1lk7uXtNODC_4bake8templateNtB8_15VariableContext12yaml_to_json00Ba_
FNDA:0,_RNCNvMNtCs1lk7uXtNODC_4bake8templateNtB4_18VariableFileLoader24load_variables_from_file0B6_
FNDA:0,_RNCNvMNtCs1lk7uXtNODC_4bake8templateNtB4_18VariableFileLoader24load_variables_from_files_0B6_
FNDA:0,_RNCNvMNtCs1lk7uXtNODC_4bake8templateNtB4_18VariableFileLoader29extract_environment_variables0B6_
FNDA:0,_RNCNvMNtCs1lk7uXtNODC_4bake8templateNtB4_18VariableFileLoader29extract_environment_variabless0_0B6_
FNDA:0,_RNCNvMNtCs1lk7uXtNODC_4bake8templateNtB4_18VariableFileLoader29extract_environment_variabless1_0B6_
FNDA:0,_RNCNvMNtCs1lk7uXtNODC_4bake8templateNtB4_18VariableFileLoader29extract_environment_variabless2_0B6_
FNDA:0,_RNCNvMNtCs1lk7uXtNODC_4bake8templateNtB4_18VariableFileLoader29extract_environment_variabless3_0B6_
FNDA:0,_RNCNvMNtCs1lk7uXtNODC_4bake8templateNtB4_18VariableFileLoader29extract_environment_variabless_0B6_
FNDA:0,_RNCNvMs_NtCs1lk7uXtNODC_4bake8templateNtB6_15VariableContext12yaml_to_json0B8_
FNDA:903,_RNCNvMs_NtCs1lk7uXtNODC_4bake8templateNtB6_15VariableContext14parse_template0B8_
FNDA:1874,_RNCNvMs_NtCs1lk7uXtNODC_4bake8templateNtB6_15VariableContext14parse_templates0_0B8_
FNDA:2259,_RNCNvMs_NtCs1lk7uXtNODC_4bake8templateNtB6_15VariableContext14parse_templates_0B8_
FNDA:1581,_RNCNvMs_NtCs1lk7uXtNODC_4bake8templateNtB6_15VariableContext17process_variables0B8_
FNDA:0,_RNCNvMs_NtCs1lk7uXtNODC_4bake8templateNtB6_15VariableContext19render_raw_template0B8_
FNDA:353,_RNCNvMs_NtCs1lk7uXtNODC_4bake8templateNtB6_15VariableContext19render_raw_templates0_0B8_
FNDA:2,_RNCNvMs_NtCs1lk7uXtNODC_4bake8templateNtB6_15VariableContext19render_raw_templates_0B8_
FNDA:0,_RNCNvMs_NtCs1lk7uXtNODC_4bake8templateNtB6_15VariableContext23with_cookbook_constants0B8_
FNDA:1,_RNCNvMs_NtCs1lk7uXtNODC_4bake8templateNtB6_15VariableContext5merge0B8_
FNDA:0,_RNCNvMs_NtCs1lk7uXtNODC_4bake8templateNtB6_15VariableContext5merges0_0B8_
FNDA:820,_RNCNvMs_NtCs1lk7uXtNODC_4bake8templateNtB6_15VariableContext5merges_0B8_
FNF:48
FNH:34
DA:21,234
DA:22,234
DA:23,234
DA:24,234
DA:26,234
DA:28,828
DA:29,680
DA:30,680
DA:31,86
DA:32,594
DA:36,148
DA:37,234
DA:48,91
DA:49,91
DA:50,91
DA:51,91
DA:52,91
DA:53,0
DA:54,0
DA:55,0
DA:58,0
DA:61,91
DA:62,0
DA:63,0
DA:64,0
DA:67,0
DA:70,91
DA:71,91
DA:83,91
DA:84,91
DA:85,91
DA:86,91
DA:87,91
DA:88,91
DA:89,0
DA:90,0
DA:91,0
DA:93,0
DA:96,91
DA:99,91
DA:100,91
DA:102,91
DA:103,0
DA:104,0
DA:105,0
DA:107,0
DA:109,323
DA:110,232
DA:111,0
DA:112,0
DA:113,0
DA:115,0
DA:117,232
DA:119,0
DA:122,91
DA:123,89
DA:124,91
DA:126,89
DA:127,89
DA:128,0
DA:129,0
DA:130,0
DA:132,5
DA:133,89
DA:135,5
DA:136,5
DA:137,0
DA:139,0
DA:140,0
DA:143,17
DA:144,12
DA:145,0
DA:146,0
DA:148,0
DA:150,0
DA:152,12
DA:157,84
DA:158,0
DA:160,0
DA:165,2
DA:166,0
DA:167,0
DA:170,0
DA:172,91
DA:173,91
DA:192,2716
DA:193,2716
DA:194,5
DA:195,101
DA:196,8
DA:197,8
DA:198,8
DA:199,0
DA:200,0
DA:201,0
DA:202,0
DA:203,0
DA:204,0
DA:206,0
DA:209,2562
DA:210,40
DA:211,40
DA:213,0
DA:214,0
DA:215,0
DA:216,0
DA:217,0
DA:218,0
DA:219,0
DA:220,0
DA:221,0
DA:223,0
DA:225,2716
DA:227,121
DA:228,121
DA:229,121
DA:231,121
DA:232,0
DA:233,0
DA:236,121
DA:239,121
DA:240,121
DA:241,121
DA:242,121
DA:243,121
DA:246,121
DA:247,121
DA:248,121
DA:249,121
DA:250,121
DA:252,121
DA:253,362
DA:255,121
DA:256,121
DA:257,0
DA:258,0
DA:263,121
DA:265,170
DA:266,170
DA:267,170
DA:268,170
DA:269,170
DA:270,170
DA:271,170
DA:272,170
DA:275,169
DA:276,169
DA:277,169
DA:280,871
DA:281,871
DA:282,871
DA:283,871
DA:284,871
DA:285,871
DA:286,871
DA:287,871
DA:288,871
DA:291,826
DA:292,826
DA:293,826
DA:294,1626
DA:295,1626
DA:297,2
DA:298,2
DA:299,2
DA:300,0
DA:302,2
DA:303,2
DA:304,1624
DA:307,1624
DA:308,1615
DA:310,6
DA:311,6
DA:312,6
DA:315,6
DA:316,6
DA:317,0
DA:320,1618
DA:323,1624
DA:324,1624
DA:325,1626
DA:326,826
DA:329,982
DA:331,982
DA:332,982
DA:333,982
DA:334,982
DA:335,982
DA:337,982
DA:339,982
DA:340,982
DA:341,0
DA:342,0
DA:346,982
DA:349,982
DA:350,982
DA:351,982
DA:352,2314
DA:353,982
DA:355,982
DA:356,1936
DA:358,982
DA:359,982
DA:360,0
DA:361,0
DA:366,982
DA:369,524
DA:370,524
DA:371,524
DA:373,524
DA:375,524
DA:376,524
DA:377,524
DA:378,524
DA:379,524
DA:380,524
DA:381,524
DA:384,469
DA:385,469
DA:386,469
DA:387,469
DA:388,469
DA:389,469
DA:390,469
DA:392,469
DA:394,469
DA:395,469
DA:396,469
DA:397,469
DA:398,469
DA:399,469
DA:400,469
DA:403,4614
DA:404,4614
DA:405,4614
DA:406,4614
DA:407,4614
DA:408,4614
DA:409,2260
DA:411,2260
DA:412,381
DA:416,381
DA:417,381
DA:418,381
DA:419,381
DA:420,0
DA:421,0
DA:422,0
DA:423,1879
DA:425,1440
DA:426,3662
DA:428,3662
DA:429,3657
DA:431,634
DA:432,3028
DA:433,3028
DA:436,832
DA:437,1285
DA:438,1285
DA:441,82
DA:443,4614
DA:444,4614
DA:454,170
DA:455,170
DA:456,170
DA:457,170
DA:458,170
DA:460,161
DA:461,161
DA:462,161
DA:463,161
DA:465,115
DA:466,115
DA:467,115
DA:468,115
DA:470,161
DA:471,161
DA:472,161
DA:473,161
DA:484,53
DA:485,53
DA:486,53
DA:487,53
DA:488,53
DA:489,53
DA:490,53
DA:491,53
DA:492,53
DA:494,170
DA:495,170
DA:496,170
DA:500,0
DA:501,0
DA:502,0
DA:511,1
DA:512,1
DA:513,1
DA:514,1
DA:515,1
DA:516,1
DA:517,1
DA:520,1
DA:521,1
DA:522,1
DA:523,1
DA:524,1
DA:525,1
DA:527,1
DA:528,1
DA:530,1
DA:531,1
DA:533,1
DA:534,1
DA:535,1
DA:536,1
DA:537,1
DA:540,1
DA:541,1
DA:542,1
DA:544,1
DA:546,1
DA:547,1
DA:548,1
DA:549,1
DA:550,1
DA:551,1
DA:552,1
DA:553,1
DA:554,1
DA:555,1
DA:556,1
DA:557,1
DA:558,1
DA:559,1
DA:560,1
DA:561,1
DA:562,1
DA:563,1
DA:566,1
DA:567,1
DA:568,1
DA:569,1
DA:570,1
DA:571,1
DA:572,1
DA:574,1
DA:575,1
DA:576,1
DA:577,1
DA:579,1
DA:580,1
DA:581,1
DA:583,1
DA:584,1
DA:585,1
DA:587,1
DA:588,1
DA:589,1
DA:591,1
DA:594,1
DA:595,1
DA:596,1
DA:597,1
DA:598,1
DA:599,1
DA:601,1
DA:602,1
DA:603,1
DA:604,1
DA:605,1
DA:606,1
DA:608,1
DA:609,1
DA:610,1
DA:611,1
DA:613,1
DA:614,1
DA:615,0
DA:616,1
DA:617,1
DA:620,1
DA:621,1
DA:622,1
DA:623,1
DA:624,1
DA:625,1
DA:628,1
DA:629,1
DA:630,1
DA:631,1
DA:632,1
DA:635,1
DA:637,1
DA:638,1
DA:639,1
DA:640,1
DA:641,1
DA:643,1
DA:644,1
DA:645,1
DA:647,1
DA:650,1
DA:652,1
DA:653,1
DA:654,1
DA:655,1
DA:658,1
DA:659,1
DA:660,1
DA:661,1
DA:662,1
DA:663,1
DA:664,1
DA:665,1
DA:666,1
DA:667,1
DA:670,1
DA:671,1
DA:672,1
DA:673,1
DA:676,1
DA:677,1
DA:678,1
DA:680,1
DA:681,1
DA:684,1
DA:685,1
DA:686,1
DA:687,1
DA:689,1
DA:690,1
DA:693,1
DA:694,1
DA:695,1
DA:696,1
DA:698,1
DA:699,1
DA:702,1
DA:703,1
DA:704,1
DA:706,1
DA:707,1
DA:708,1
DA:710,1
DA:713,1
DA:715,1
DA:716,1
DA:717,1
DA:718,1
DA:719,1
DA:720,1
DA:721,1
DA:722,1
DA:724,1
DA:726,1
DA:729,1
DA:730,1
DA:733,1
DA:734,1
DA:737,1
DA:738,1
DA:741,1
DA:744,1
DA:748,1
DA:749,1
DA:750,1
DA:751,1
DA:752,1
DA:753,1
DA:754,1
DA:756,1
DA:759,1
DA:760,1
DA:761,1
DA:762,1
DA:763,1
DA:764,1
DA:765,1
DA:766,1
DA:767,1
DA:768,1
DA:769,1
DA:770,1
DA:771,1
DA:773,1
DA:776,1
DA:779,1
DA:780,1
DA:781,1
DA:782,1
DA:784,1
DA:785,1
DA:786,1
DA:787,0
DA:788,1
BRF:0
BRH:0
LF:520
LH:432
end_of_record
SF:/Users/theoribeiro/Dev/tools/bake/src/update.rs
FN:77,_RNCNvNtCs4EkGjsAKdp2_4bake6update17check_for_updates0Cs6G5DyER1L5a_4bake
FN:77,_RNCNvNtCs4EkGjsAKdp2_4bake6update17check_for_updates0B5_
FN:250,_RNvNtCs4EkGjsAKdp2_4bake6update13is_prerelease
FN:317,_RNvNtCs4EkGjsAKdp2_4bake6update17can_update_binary
FN:77,_RNvNtCs4EkGjsAKdp2_4bake6update17check_for_updates
FN:153,_RNvNtCs4EkGjsAKdp2_4bake6update19perform_self_update
FN:34,_RNvNtCs4EkGjsAKdp2_4bake6update21get_update_check_file
FN:47,_RNvNtCs4EkGjsAKdp2_4bake6update24should_check_for_updates
FN:258,_RNvNtCs4EkGjsAKdp2_4bake6update24should_skip_update_check
FN:69,_RNvNtCs4EkGjsAKdp2_4bake6update27update_last_check_timestamp
FN:286,_RNvNtCs4EkGjsAKdp2_4bake6update31is_package_managed_installation
FN:23,_RNvXNtCs4EkGjsAKdp2_4bake6updateNtB2_12UpdateConfigNtNtCs4ZQmVerOrPM_4core7default7Default7default
FN:38,_RNCNvNtCs4EkGjsAKdp2_4bake6update21get_update_check_file0B5_
FN:153,_RNvNtCs1lk7uXtNODC_4bake6update19perform_self_update
FN:455,_RNvNtNtCs1lk7uXtNODC_4bake6update5testss_18test_is_prerelease
FN:563,_RNvNtNtCs1lk7uXtNODC_4bake6update5testss_22test_can_update_binary
FN:347,_RNvNtNtCs1lk7uXtNODC_4bake6update5testss_26test_update_config_default
FN:543,_RNvNtNtCs1lk7uXtNODC_4bake6update5testss_32test_update_last_check_timestamp
FN:356,_RNvNtNtCs1lk7uXtNODC_4bake6update5testss_35test_should_skip_update_check_in_ci
FN:465,_RNvNtNtCs1lk7uXtNODC_4bake6update5testss_36test_is_package_managed_installation
FN:370,_RNvNtNtCs1lk7uXtNODC_4bake6update5testss_37test_should_check_for_updates_no_file
FN:363,_RNvNtNtCs1lk7uXtNODC_4bake6update5testss_38test_should_skip_update_check_in_cargo
FN:430,_RNvNtNtCs1lk7uXtNODC_4bake6update5testss_41test_should_check_for_updates_force_check
FN:407,_RNvNtNtCs1lk7uXtNODC_4bake6update5testss_43test_should_check_for_updates_with_old_file
FN:596,_RNvNtNtCs1lk7uXtNODC_4bake6update5testss_44test_should_skip_update_check_github_actions
FN:384,_RNvNtNtCs1lk7uXtNODC_4bake6update5testss_46test_should_check_for_updates_with_recent_file
FN:520,_RNvNtNtCs1lk7uXtNODC_4bake6update5testss_48test_get_update_check_file_with_custom_cache_dir
FN:533,_RNvNtNtCs1lk7uXtNODC_4bake6update5testss_49test_get_update_check_file_with_default_cache_dir
FN:508,_RNvNtNtCs1lk7uXtNODC_4bake6update5testss_50test_is_package_managed_installation_with_symlinks
FN:610,_RNvNtNtCs1lk7uXtNODC_4bake6update5testss_52test_should_check_for_updates_invalid_timestamp_file
FN:603,_RNvNtNtCs1lk7uXtNODC_4bake6update5testss_52test_should_skip_update_check_continuous_integration
FN:573,_RNvNtNtCs1lk7uXtNODC_4bake6update5testss_61test_should_skip_update_check_detects_ci_and_dev_environments
FN:77,_RNCNvNtCs1lk7uXtNODC_4bake6update17check_for_updates0B5_
FN:38,_RNCNvNtCs1lk7uXtNODC_4bake6update21get_update_check_file0B5_
FN:250,_RNvNtCs1lk7uXtNODC_4bake6update13is_prerelease
FN:317,_RNvNtCs1lk7uXtNODC_4bake6update17can_update_binary
FN:77,_RNvNtCs1lk7uXtNODC_4bake6update17check_for_updates
FN:34,_RNvNtCs1lk7uXtNODC_4bake6update21get_update_check_file
FN:47,_RNvNtCs1lk7uXtNODC_4bake6update24should_check_for_updates
FN:258,_RNvNtCs1lk7uXtNODC_4bake6update24should_skip_update_check
FN:69,_RNvNtCs1lk7uXtNODC_4bake6update27update_last_check_timestamp
FN:286,_RNvNtCs1lk7uXtNODC_4bake6update31is_package_managed_installation
FN:23,_RNvXNtCs1lk7uXtNODC_4bake6updateNtB2_12UpdateConfigNtNtCs4ZQmVerOrPM_4core7default7Default7default
FNDA:0,_RNCNvNtCs4EkGjsAKdp2_4bake6update17check_for_updates0Cs6G5DyER1L5a_4bake
FNDA:0,_RNCNvNtCs4EkGjsAKdp2_4bake6update17check_for_updates0B5_
FNDA:0,_RNvNtCs4EkGjsAKdp2_4bake6update13is_prerelease
FNDA:0,_RNvNtCs4EkGjsAKdp2_4bake6update17can_update_binary
FNDA:0,_RNvNtCs4EkGjsAKdp2_4bake6update17check_for_updates
FNDA:0,_RNvNtCs4EkGjsAKdp2_4bake6update19perform_self_update
FNDA:0,_RNvNtCs4EkGjsAKdp2_4bake6update21get_update_check_file
FNDA:0,_RNvNtCs4EkGjsAKdp2_4bake6update24should_check_for_updates
FNDA:0,_RNvNtCs4EkGjsAKdp2_4bake6update24should_skip_update_check
FNDA:0,_RNvNtCs4EkGjsAKdp2_4bake6update27update_last_check_timestamp
FNDA:0,_RNvNtCs4EkGjsAKdp2_4bake6update31is_package_managed_installation
FNDA:0,_RNvXNtCs4EkGjsAKdp2_4bake6updateNtB2_12UpdateConfigNtNtCs4ZQmVerOrPM_4core7default7Default7default
FNDA:0,_RNCNvNtCs4EkGjsAKdp2_4bake6update21get_update_check_file0B5_
FNDA:0,_RNvNtCs1lk7uXtNODC_4bake6update19perform_self_update
FNDA:1,_RNvNtNtCs1lk7uXtNODC_4bake6update5testss_18test_is_prerelease
FNDA:1,_RNvNtNtCs1lk7uXtNODC_4bake6update5testss_22test_can_update_binary
FNDA:1,_RNvNtNtCs1lk7uXtNODC_4bake6update5testss_26test_update_config_default
FNDA:1,_RNvNtNtCs1lk7uXtNODC_4bake6update5testss_32test_update_last_check_timestamp
FNDA:1,_RNvNtNtCs1lk7uXtNODC_4bake6update5testss_35test_should_skip_update_check_in_ci
FNDA:1,_RNvNtNtCs1lk7uXtNODC_4bake6update5testss_36test_is_package_managed_installation
FNDA:1,_RNvNtNtCs1lk7uXtNODC_4bake6update5testss_37test_should_check_for_updates_no_file
FNDA:1,_RNvNtNtCs1lk7uXtNODC_4bake6update5testss_38test_should_skip_update_check_in_cargo
FNDA:1,_RNvNtNtCs1lk7uXtNODC_4bake6update5testss_41test_should_check_for_updates_force_check
FNDA:1,_RNvNtNtCs1lk7uXtNODC_4bake6update5testss_43test_should_check_for_updates_with_old_file
FNDA:1,_RNvNtNtCs1lk7uXtNODC_4bake6update5testss_44test_should_skip_update_check_github_actions
FNDA:1,_RNvNtNtCs1lk7uXtNODC_4bake6update5testss_46test_should_check_for_updates_with_recent_file
FNDA:1,_RNvNtNtCs1lk7uXtNODC_4bake6update5testss_48test_get_update_check_file_with_custom_cache_dir
FNDA:1,_RNvNtNtCs1lk7uXtNODC_4bake6update5testss_49test_get_update_check_file_with_default_cache_dir
FNDA:1,_RNvNtNtCs1lk7uXtNODC_4bake6update5testss_50test_is_package_managed_installation_with_symlinks
FNDA:1,_RNvNtNtCs1lk7uXtNODC_4bake6update5testss_52test_should_check_for_updates_invalid_timestamp_file
FNDA:1,_RNvNtNtCs1lk7uXtNODC_4bake6update5testss_52test_should_skip_update_check_continuous_integration
FNDA:1,_RNvNtNtCs1lk7uXtNODC_4bake6update5testss_61test_should_skip_update_check_detects_ci_and_dev_environments
FNDA:3,_RNCNvNtCs1lk7uXtNODC_4bake6update17check_for_updates0B5_
FNDA:0,_RNCNvNtCs1lk7uXtNODC_4bake6update21get_update_check_file0B5_
FNDA:6,_RNvNtCs1lk7uXtNODC_4bake6update13is_prerelease
FNDA:1,_RNvNtCs1lk7uXtNODC_4bake6update17can_update_binary
FNDA:3,_RNvNtCs1lk7uXtNODC_4bake6update17check_for_updates
FNDA:8,_RNvNtCs1lk7uXtNODC_4bake6update21get_update_check_file
FNDA:6,_RNvNtCs1lk7uXtNODC_4bake6update24should_check_for_updates
FNDA:8,_RNvNtCs1lk7uXtNODC_4bake6update24should_skip_update_check
FNDA:1,_RNvNtCs1lk7uXtNODC_4bake6update27update_last_check_timestamp
FNDA:11,_RNvNtCs1lk7uXtNODC_4bake6update31is_package_managed_installation
FNDA:2,_RNvXNtCs1lk7uXtNODC_4bake6updateNtB2_12UpdateConfigNtNtCs4ZQmVerOrPM_4core7default7Default7default
FNF:30
FNH:28
DA:23,2
DA:24,2
DA:25,2
DA:26,2
DA:27,2
DA:28,2
DA:29,2
DA:30,2
DA:34,8
DA:35,8
DA:36,7
DA:37,1
DA:38,1
DA:39,1
DA:42,8
DA:43,8
DA:44,8
DA:47,6
DA:48,6
DA:49,6
DA:50,6
DA:51,6
DA:53,6
DA:54,1
DA:55,5
DA:57,5
DA:58,5
DA:59,1
DA:60,4
DA:61,4
DA:62,4
DA:63,3
DA:64,3
DA:65,3
DA:66,6
DA:69,1
DA:70,1
DA:71,1
DA:72,1
DA:73,1
DA:74,1
DA:77,3
DA:78,3
DA:79,0
DA:80,3
DA:81,3
DA:82,3
DA:83,0
DA:84,0
DA:85,0
DA:86,0
DA:87,0
DA:88,0
DA:89,0
DA:90,0
DA:91,0
DA:92,0
DA:93,0
DA:94,0
DA:95,0
DA:97,0
DA:98,0
DA:99,0
DA:100,0
DA:101,0
DA:102,0
DA:103,0
DA:104,0
DA:105,0
DA:106,0
DA:107,0
DA:108,0
DA:109,0
DA:111,0
DA:112,0
DA:113,0
DA:115,0
DA:116,0
DA:117,0
DA:118,0
DA:120,0
DA:121,0
DA:123,0
DA:124,0
DA:125,0
DA:129,0
DA:130,0
DA:131,0
DA:132,0
DA:134,0
DA:135,0
DA:137,0
DA:138,0
DA:139,0
DA:141,0
DA:142,0
DA:145,0
DA:146,0
DA:149,0
DA:150,3
DA:153,0
DA:154,0
DA:157,0
DA:158,0
DA:159,0
DA:160,0
DA:161,0
DA:163,0
DA:164,0
DA:165,0
DA:168,0
DA:169,0
DA:170,0
DA:171,0
DA:172,0
DA:173,0
DA:174,0
DA:175,0
DA:176,0
DA:177,0
DA:178,0
DA:179,0
DA:180,0
DA:181,0
DA:182,0
DA:183,0
DA:184,0
DA:185,0
DA:186,0
DA:188,0
DA:189,0
DA:190,0
DA:193,0
DA:194,0
DA:195,0
DA:196,0
DA:197,0
DA:198,0
DA:200,0
DA:201,0
DA:202,0
DA:203,0
DA:204,0
DA:205,0
DA:206,0
DA:207,0
DA:209,0
DA:210,0
DA:213,0
DA:214,0
DA:215,0
DA:216,0
DA:218,0
DA:219,0
DA:221,0
DA:222,0
DA:223,0
DA:224,0
DA:226,0
DA:227,0
DA:228,0
DA:229,0
DA:230,0
DA:233,0
DA:235,0
DA:236,0
DA:237,0
DA:238,0
DA:240,0
DA:242,0
DA:243,0
DA:244,0
DA:247,0
DA:250,6
DA:251,6
DA:252,2
DA:253,2
DA:254,2
DA:255,6
DA:258,8
DA:260,8
DA:261,2
DA:262,6
DA:265,6
DA:266,5
DA:267,1
DA:270,1
DA:271,1
DA:272,1
DA:273,1
DA:274,0
DA:277,0
DA:278,0
DA:279,0
DA:280,0
DA:282,0
DA:283,8
DA:286,11
DA:287,11
DA:290,11
DA:291,10
DA:292,9
DA:293,8
DA:294,7
DA:295,6
DA:296,4
DA:298,7
DA:299,4
DA:302,4
DA:303,0
DA:304,0
DA:305,0
DA:306,0
DA:307,0
DA:309,0
DA:310,0
DA:311,4
DA:313,4
DA:314,11
DA:317,1
DA:318,1
DA:319,1
DA:321,1
DA:322,1
DA:325,0
DA:326,0
DA:327,0
DA:328,0
DA:329,0
DA:331,0
DA:336,0
DA:338,1
DA:347,1
DA:348,1
DA:349,1
DA:350,1
DA:351,1
DA:352,1
DA:353,1
DA:356,1
DA:357,1
DA:358,1
DA:359,1
DA:360,1
DA:363,1
DA:364,1
DA:365,1
DA:366,1
DA:367,1
DA:370,1
DA:371,1
DA:372,1
DA:373,1
DA:374,1
DA:375,1
DA:376,1
DA:377,1
DA:378,1
DA:380,1
DA:381,1
DA:384,1
DA:385,1
DA:386,1
DA:387,1
DA:389,1
DA:390,1
DA:391,1
DA:392,1
DA:393,1
DA:394,1
DA:395,1
DA:396,1
DA:397,1
DA:398,1
DA:399,1
DA:400,1
DA:401,1
DA:403,1
DA:404,1
DA:407,1
DA:408,1
DA:409,1
DA:410,1
DA:412,1
DA:413,1
DA:414,1
DA:415,1
DA:416,1
DA:417,1
DA:418,1
DA:419,1
DA:420,1
DA:421,1
DA:422,1
DA:423,1
DA:424,1
DA:426,1
DA:427,1
DA:430,1
DA:431,1
DA:432,1
DA:433,1
DA:435,1
DA:436,1
DA:437,1
DA:438,1
DA:439,1
DA:440,1
DA:441,1
DA:442,1
DA:443,1
DA:444,1
DA:445,1
DA:446,1
DA:447,1
DA:449,1
DA:451,1
DA:452,1
DA:455,1
DA:456,1
DA:457,1
DA:458,1
DA:459,1
DA:460,1
DA:461,1
DA:462,1
DA:465,1
DA:469,1
DA:470,1
DA:471,1
DA:472,1
DA:473,1
DA:474,1
DA:477,1
DA:478,1
DA:479,1
DA:480,1
DA:483,1
DA:484,1
DA:485,1
DA:486,1
DA:487,1
DA:488,1
DA:491,1
DA:492,1
DA:493,1
DA:496,1
DA:497,1
DA:498,1
DA:499,1
DA:500,1
DA:501,1
DA:502,1
DA:503,1
DA:504,1
DA:505,1
DA:508,1
DA:511,1
DA:512,1
DA:513,1
DA:516,1
DA:517,1
DA:520,1
DA:521,1
DA:522,1
DA:524,1
DA:525,1
DA:527,1
DA:528,1
DA:529,1
DA:530,1
DA:533,1
DA:534,1
DA:536,1
DA:537,1
DA:538,1
DA:539,1
DA:540,1
DA:543,1
DA:544,1
DA:545,1
DA:547,1
DA:548,1
DA:550,1
DA:551,1
DA:553,1
DA:554,1
DA:557,1
DA:558,1
DA:559,1
DA:560,1
DA:563,1
DA:566,1
DA:569,1
DA:570,1
DA:573,1
DA:580,1
DA:589,1
DA:593,1
DA:596,1
DA:597,1
DA:598,1
DA:599,1
DA:600,1
DA:603,1
DA:604,1
DA:605,1
DA:606,1
DA:607,1
DA:610,1
DA:611,1
DA:612,1
DA:613,1
DA:616,1
DA:618,1
DA:621,1
DA:622,1
DA:623,1
BRF:0
BRH:0
LF:420
LH:273
end_of_record